
src/bufbomb:     file format elf32-i386


Disassembly of section bstack:

5558f000 <_reserved>:
	...

Disassembly of section .init:

08049000 <_init>:
 8049000:	53                   	push   %ebx
 8049001:	83 ec 08             	sub    $0x8,%esp
 8049004:	e8 c7 02 00 00       	call   80492d0 <__x86.get_pc_thunk.bx>
 8049009:	81 c3 f7 3f 00 00    	add    $0x3ff7,%ebx
 804900f:	8b 83 fc ff ff ff    	mov    -0x4(%ebx),%eax
 8049015:	85 c0                	test   %eax,%eax
 8049017:	74 02                	je     804901b <_init+0x1b>
 8049019:	ff d0                	call   *%eax
 804901b:	83 c4 08             	add    $0x8,%esp
 804901e:	5b                   	pop    %ebx
 804901f:	c3                   	ret    

Disassembly of section .plt:

08049020 <.plt>:
 8049020:	ff 35 04 d0 04 08    	pushl  0x804d004
 8049026:	ff 25 08 d0 04 08    	jmp    *0x804d008
 804902c:	00 00                	add    %al,(%eax)
	...

08049030 <strcmp@plt>:
 8049030:	ff 25 0c d0 04 08    	jmp    *0x804d00c
 8049036:	68 00 00 00 00       	push   $0x0
 804903b:	e9 e0 ff ff ff       	jmp    8049020 <.plt>

08049040 <read@plt>:
 8049040:	ff 25 10 d0 04 08    	jmp    *0x804d010
 8049046:	68 08 00 00 00       	push   $0x8
 804904b:	e9 d0 ff ff ff       	jmp    8049020 <.plt>

08049050 <srandom@plt>:
 8049050:	ff 25 14 d0 04 08    	jmp    *0x804d014
 8049056:	68 10 00 00 00       	push   $0x10
 804905b:	e9 c0 ff ff ff       	jmp    8049020 <.plt>

08049060 <printf@plt>:
 8049060:	ff 25 18 d0 04 08    	jmp    *0x804d018
 8049066:	68 18 00 00 00       	push   $0x18
 804906b:	e9 b0 ff ff ff       	jmp    8049020 <.plt>

08049070 <memmove@plt>:
 8049070:	ff 25 1c d0 04 08    	jmp    *0x804d01c
 8049076:	68 20 00 00 00       	push   $0x20
 804907b:	e9 a0 ff ff ff       	jmp    8049020 <.plt>

08049080 <strdup@plt>:
 8049080:	ff 25 20 d0 04 08    	jmp    *0x804d020
 8049086:	68 28 00 00 00       	push   $0x28
 804908b:	e9 90 ff ff ff       	jmp    8049020 <.plt>

08049090 <memcpy@plt>:
 8049090:	ff 25 24 d0 04 08    	jmp    *0x804d024
 8049096:	68 30 00 00 00       	push   $0x30
 804909b:	e9 80 ff ff ff       	jmp    8049020 <.plt>

080490a0 <signal@plt>:
 80490a0:	ff 25 28 d0 04 08    	jmp    *0x804d028
 80490a6:	68 38 00 00 00       	push   $0x38
 80490ab:	e9 70 ff ff ff       	jmp    8049020 <.plt>

080490b0 <memcmp@plt>:
 80490b0:	ff 25 2c d0 04 08    	jmp    *0x804d02c
 80490b6:	68 40 00 00 00       	push   $0x40
 80490bb:	e9 60 ff ff ff       	jmp    8049020 <.plt>

080490c0 <alarm@plt>:
 80490c0:	ff 25 30 d0 04 08    	jmp    *0x804d030
 80490c6:	68 48 00 00 00       	push   $0x48
 80490cb:	e9 50 ff ff ff       	jmp    8049020 <.plt>

080490d0 <htons@plt>:
 80490d0:	ff 25 34 d0 04 08    	jmp    *0x804d034
 80490d6:	68 50 00 00 00       	push   $0x50
 80490db:	e9 40 ff ff ff       	jmp    8049020 <.plt>

080490e0 <fwrite@plt>:
 80490e0:	ff 25 38 d0 04 08    	jmp    *0x804d038
 80490e6:	68 58 00 00 00       	push   $0x58
 80490eb:	e9 30 ff ff ff       	jmp    8049020 <.plt>

080490f0 <strcpy@plt>:
 80490f0:	ff 25 3c d0 04 08    	jmp    *0x804d03c
 80490f6:	68 60 00 00 00       	push   $0x60
 80490fb:	e9 20 ff ff ff       	jmp    8049020 <.plt>

08049100 <getpid@plt>:
 8049100:	ff 25 40 d0 04 08    	jmp    *0x804d040
 8049106:	68 68 00 00 00       	push   $0x68
 804910b:	e9 10 ff ff ff       	jmp    8049020 <.plt>

08049110 <gethostname@plt>:
 8049110:	ff 25 44 d0 04 08    	jmp    *0x804d044
 8049116:	68 70 00 00 00       	push   $0x70
 804911b:	e9 00 ff ff ff       	jmp    8049020 <.plt>

08049120 <puts@plt>:
 8049120:	ff 25 48 d0 04 08    	jmp    *0x804d048
 8049126:	68 78 00 00 00       	push   $0x78
 804912b:	e9 f0 fe ff ff       	jmp    8049020 <.plt>

08049130 <exit@plt>:
 8049130:	ff 25 4c d0 04 08    	jmp    *0x804d04c
 8049136:	68 80 00 00 00       	push   $0x80
 804913b:	e9 e0 fe ff ff       	jmp    8049020 <.plt>

08049140 <srand@plt>:
 8049140:	ff 25 50 d0 04 08    	jmp    *0x804d050
 8049146:	68 88 00 00 00       	push   $0x88
 804914b:	e9 d0 fe ff ff       	jmp    8049020 <.plt>

08049150 <mmap@plt>:
 8049150:	ff 25 54 d0 04 08    	jmp    *0x804d054
 8049156:	68 90 00 00 00       	push   $0x90
 804915b:	e9 c0 fe ff ff       	jmp    8049020 <.plt>

08049160 <strlen@plt>:
 8049160:	ff 25 58 d0 04 08    	jmp    *0x804d058
 8049166:	68 98 00 00 00       	push   $0x98
 804916b:	e9 b0 fe ff ff       	jmp    8049020 <.plt>

08049170 <__libc_start_main@plt>:
 8049170:	ff 25 5c d0 04 08    	jmp    *0x804d05c
 8049176:	68 a0 00 00 00       	push   $0xa0
 804917b:	e9 a0 fe ff ff       	jmp    8049020 <.plt>

08049180 <write@plt>:
 8049180:	ff 25 60 d0 04 08    	jmp    *0x804d060
 8049186:	68 a8 00 00 00       	push   $0xa8
 804918b:	e9 90 fe ff ff       	jmp    8049020 <.plt>

08049190 <getopt@plt>:
 8049190:	ff 25 64 d0 04 08    	jmp    *0x804d064
 8049196:	68 b0 00 00 00       	push   $0xb0
 804919b:	e9 80 fe ff ff       	jmp    8049020 <.plt>

080491a0 <strcasecmp@plt>:
 80491a0:	ff 25 68 d0 04 08    	jmp    *0x804d068
 80491a6:	68 b8 00 00 00       	push   $0xb8
 80491ab:	e9 70 fe ff ff       	jmp    8049020 <.plt>

080491b0 <__isoc99_sscanf@plt>:
 80491b0:	ff 25 6c d0 04 08    	jmp    *0x804d06c
 80491b6:	68 c0 00 00 00       	push   $0xc0
 80491bb:	e9 60 fe ff ff       	jmp    8049020 <.plt>

080491c0 <memset@plt>:
 80491c0:	ff 25 70 d0 04 08    	jmp    *0x804d070
 80491c6:	68 c8 00 00 00       	push   $0xc8
 80491cb:	e9 50 fe ff ff       	jmp    8049020 <.plt>

080491d0 <__errno_location@plt>:
 80491d0:	ff 25 74 d0 04 08    	jmp    *0x804d074
 80491d6:	68 d0 00 00 00       	push   $0xd0
 80491db:	e9 40 fe ff ff       	jmp    8049020 <.plt>

080491e0 <rand@plt>:
 80491e0:	ff 25 78 d0 04 08    	jmp    *0x804d078
 80491e6:	68 d8 00 00 00       	push   $0xd8
 80491eb:	e9 30 fe ff ff       	jmp    8049020 <.plt>

080491f0 <munmap@plt>:
 80491f0:	ff 25 7c d0 04 08    	jmp    *0x804d07c
 80491f6:	68 e0 00 00 00       	push   $0xe0
 80491fb:	e9 20 fe ff ff       	jmp    8049020 <.plt>

08049200 <sprintf@plt>:
 8049200:	ff 25 80 d0 04 08    	jmp    *0x804d080
 8049206:	68 e8 00 00 00       	push   $0xe8
 804920b:	e9 10 fe ff ff       	jmp    8049020 <.plt>

08049210 <socket@plt>:
 8049210:	ff 25 84 d0 04 08    	jmp    *0x804d084
 8049216:	68 f0 00 00 00       	push   $0xf0
 804921b:	e9 00 fe ff ff       	jmp    8049020 <.plt>

08049220 <getc@plt>:
 8049220:	ff 25 88 d0 04 08    	jmp    *0x804d088
 8049226:	68 f8 00 00 00       	push   $0xf8
 804922b:	e9 f0 fd ff ff       	jmp    8049020 <.plt>

08049230 <random@plt>:
 8049230:	ff 25 8c d0 04 08    	jmp    *0x804d08c
 8049236:	68 00 01 00 00       	push   $0x100
 804923b:	e9 e0 fd ff ff       	jmp    8049020 <.plt>

08049240 <gethostbyname@plt>:
 8049240:	ff 25 90 d0 04 08    	jmp    *0x804d090
 8049246:	68 08 01 00 00       	push   $0x108
 804924b:	e9 d0 fd ff ff       	jmp    8049020 <.plt>

08049250 <connect@plt>:
 8049250:	ff 25 94 d0 04 08    	jmp    *0x804d094
 8049256:	68 10 01 00 00       	push   $0x110
 804925b:	e9 c0 fd ff ff       	jmp    8049020 <.plt>

08049260 <close@plt>:
 8049260:	ff 25 98 d0 04 08    	jmp    *0x804d098
 8049266:	68 18 01 00 00       	push   $0x118
 804926b:	e9 b0 fd ff ff       	jmp    8049020 <.plt>

08049270 <calloc@plt>:
 8049270:	ff 25 9c d0 04 08    	jmp    *0x804d09c
 8049276:	68 20 01 00 00       	push   $0x120
 804927b:	e9 a0 fd ff ff       	jmp    8049020 <.plt>

Disassembly of section .text:

08049280 <_start>:
 8049280:	31 ed                	xor    %ebp,%ebp
 8049282:	5e                   	pop    %esi
 8049283:	89 e1                	mov    %esp,%ecx
 8049285:	83 e4 f0             	and    $0xfffffff0,%esp
 8049288:	50                   	push   %eax
 8049289:	54                   	push   %esp
 804928a:	52                   	push   %edx
 804928b:	e8 23 00 00 00       	call   80492b3 <_start+0x33>
 8049290:	81 c3 70 3d 00 00    	add    $0x3d70,%ebx
 8049296:	8d 83 40 dc ff ff    	lea    -0x23c0(%ebx),%eax
 804929c:	50                   	push   %eax
 804929d:	8d 83 e0 db ff ff    	lea    -0x2420(%ebx),%eax
 80492a3:	50                   	push   %eax
 80492a4:	51                   	push   %ecx
 80492a5:	56                   	push   %esi
 80492a6:	c7 c0 02 9a 04 08    	mov    $0x8049a02,%eax
 80492ac:	50                   	push   %eax
 80492ad:	e8 be fe ff ff       	call   8049170 <__libc_start_main@plt>
 80492b2:	f4                   	hlt    
 80492b3:	8b 1c 24             	mov    (%esp),%ebx
 80492b6:	c3                   	ret    
 80492b7:	66 90                	xchg   %ax,%ax
 80492b9:	66 90                	xchg   %ax,%ax
 80492bb:	66 90                	xchg   %ax,%ax
 80492bd:	66 90                	xchg   %ax,%ax
 80492bf:	90                   	nop

080492c0 <_dl_relocate_static_pie>:
 80492c0:	c3                   	ret    
 80492c1:	66 90                	xchg   %ax,%ax
 80492c3:	66 90                	xchg   %ax,%ax
 80492c5:	66 90                	xchg   %ax,%ax
 80492c7:	66 90                	xchg   %ax,%ax
 80492c9:	66 90                	xchg   %ax,%ax
 80492cb:	66 90                	xchg   %ax,%ax
 80492cd:	66 90                	xchg   %ax,%ax
 80492cf:	90                   	nop

080492d0 <__x86.get_pc_thunk.bx>:
 80492d0:	8b 1c 24             	mov    (%esp),%ebx
 80492d3:	c3                   	ret    
 80492d4:	66 90                	xchg   %ax,%ax
 80492d6:	66 90                	xchg   %ax,%ax
 80492d8:	66 90                	xchg   %ax,%ax
 80492da:	66 90                	xchg   %ax,%ax
 80492dc:	66 90                	xchg   %ax,%ax
 80492de:	66 90                	xchg   %ax,%ax

080492e0 <deregister_tm_clones>:
 80492e0:	b8 dc d1 04 08       	mov    $0x804d1dc,%eax
 80492e5:	3d dc d1 04 08       	cmp    $0x804d1dc,%eax
 80492ea:	74 24                	je     8049310 <deregister_tm_clones+0x30>
 80492ec:	b8 00 00 00 00       	mov    $0x0,%eax
 80492f1:	85 c0                	test   %eax,%eax
 80492f3:	74 1b                	je     8049310 <deregister_tm_clones+0x30>
 80492f5:	55                   	push   %ebp
 80492f6:	89 e5                	mov    %esp,%ebp
 80492f8:	83 ec 14             	sub    $0x14,%esp
 80492fb:	68 dc d1 04 08       	push   $0x804d1dc
 8049300:	ff d0                	call   *%eax
 8049302:	83 c4 10             	add    $0x10,%esp
 8049305:	c9                   	leave  
 8049306:	c3                   	ret    
 8049307:	8d b4 26 00 00 00 00 	lea    0x0(%esi,%eiz,1),%esi
 804930e:	66 90                	xchg   %ax,%ax
 8049310:	c3                   	ret    
 8049311:	8d b4 26 00 00 00 00 	lea    0x0(%esi,%eiz,1),%esi
 8049318:	8d b4 26 00 00 00 00 	lea    0x0(%esi,%eiz,1),%esi
 804931f:	90                   	nop

08049320 <register_tm_clones>:
 8049320:	b8 dc d1 04 08       	mov    $0x804d1dc,%eax
 8049325:	2d dc d1 04 08       	sub    $0x804d1dc,%eax
 804932a:	c1 f8 02             	sar    $0x2,%eax
 804932d:	89 c2                	mov    %eax,%edx
 804932f:	c1 ea 1f             	shr    $0x1f,%edx
 8049332:	01 d0                	add    %edx,%eax
 8049334:	d1 f8                	sar    %eax
 8049336:	74 20                	je     8049358 <register_tm_clones+0x38>
 8049338:	ba 00 00 00 00       	mov    $0x0,%edx
 804933d:	85 d2                	test   %edx,%edx
 804933f:	74 17                	je     8049358 <register_tm_clones+0x38>
 8049341:	55                   	push   %ebp
 8049342:	89 e5                	mov    %esp,%ebp
 8049344:	83 ec 10             	sub    $0x10,%esp
 8049347:	50                   	push   %eax
 8049348:	68 dc d1 04 08       	push   $0x804d1dc
 804934d:	ff d2                	call   *%edx
 804934f:	83 c4 10             	add    $0x10,%esp
 8049352:	c9                   	leave  
 8049353:	c3                   	ret    
 8049354:	8d 74 26 00          	lea    0x0(%esi,%eiz,1),%esi
 8049358:	c3                   	ret    
 8049359:	8d b4 26 00 00 00 00 	lea    0x0(%esi,%eiz,1),%esi

08049360 <__do_global_dtors_aux>:
 8049360:	80 3d 0c d2 04 08 00 	cmpb   $0x0,0x804d20c
 8049367:	75 17                	jne    8049380 <__do_global_dtors_aux+0x20>
 8049369:	55                   	push   %ebp
 804936a:	89 e5                	mov    %esp,%ebp
 804936c:	83 ec 08             	sub    $0x8,%esp
 804936f:	e8 6c ff ff ff       	call   80492e0 <deregister_tm_clones>
 8049374:	c6 05 0c d2 04 08 01 	movb   $0x1,0x804d20c
 804937b:	c9                   	leave  
 804937c:	c3                   	ret    
 804937d:	8d 76 00             	lea    0x0(%esi),%esi
 8049380:	c3                   	ret    
 8049381:	8d b4 26 00 00 00 00 	lea    0x0(%esi,%eiz,1),%esi
 8049388:	8d b4 26 00 00 00 00 	lea    0x0(%esi,%eiz,1),%esi
 804938f:	90                   	nop

08049390 <frame_dummy>:
 8049390:	eb 8e                	jmp    8049320 <register_tm_clones>

08049392 <FiXpZXqimu>:
 8049392:	55                   	push   %ebp
 8049393:	89 e5                	mov    %esp,%ebp
 8049395:	90                   	nop
 8049396:	90                   	nop
 8049397:	90                   	nop
 8049398:	90                   	nop
 8049399:	90                   	nop
 804939a:	90                   	nop
 804939b:	90                   	nop
 804939c:	90                   	nop
 804939d:	90                   	nop
 804939e:	90                   	nop
 804939f:	90                   	nop
 80493a0:	90                   	nop
 80493a1:	90                   	nop
 80493a2:	90                   	nop
 80493a3:	90                   	nop
 80493a4:	90                   	nop
 80493a5:	90                   	nop
 80493a6:	90                   	nop
 80493a7:	90                   	nop
 80493a8:	90                   	nop
 80493a9:	90                   	nop
 80493aa:	90                   	nop
 80493ab:	90                   	nop
 80493ac:	90                   	nop
 80493ad:	90                   	nop
 80493ae:	90                   	nop
 80493af:	90                   	nop
 80493b0:	90                   	nop
 80493b1:	90                   	nop
 80493b2:	90                   	nop
 80493b3:	90                   	nop
 80493b4:	90                   	nop
 80493b5:	90                   	nop
 80493b6:	90                   	nop
 80493b7:	90                   	nop
 80493b8:	90                   	nop
 80493b9:	90                   	nop
 80493ba:	90                   	nop
 80493bb:	90                   	nop
 80493bc:	90                   	nop
 80493bd:	90                   	nop
 80493be:	90                   	nop
 80493bf:	90                   	nop
 80493c0:	90                   	nop
 80493c1:	90                   	nop
 80493c2:	90                   	nop
 80493c3:	90                   	nop
 80493c4:	90                   	nop
 80493c5:	90                   	nop
 80493c6:	90                   	nop
 80493c7:	90                   	nop
 80493c8:	90                   	nop
 80493c9:	90                   	nop
 80493ca:	90                   	nop
 80493cb:	90                   	nop
 80493cc:	90                   	nop
 80493cd:	90                   	nop
 80493ce:	90                   	nop
 80493cf:	90                   	nop
 80493d0:	90                   	nop
 80493d1:	90                   	nop
 80493d2:	90                   	nop
 80493d3:	90                   	nop
 80493d4:	90                   	nop
 80493d5:	d9 45 0c             	flds   0xc(%ebp)
 80493d8:	d8 4d 10             	fmuls  0x10(%ebp)
 80493db:	d8 45 08             	fadds  0x8(%ebp)
 80493de:	d9 45 0c             	flds   0xc(%ebp)
 80493e1:	d8 75 10             	fdivs  0x10(%ebp)
 80493e4:	de e9                	fsubrp %st,%st(1)
 80493e6:	5d                   	pop    %ebp
 80493e7:	c3                   	ret    

080493e8 <smoke>:
 80493e8:	55                   	push   %ebp
 80493e9:	89 e5                	mov    %esp,%ebp
 80493eb:	83 ec 08             	sub    $0x8,%esp
 80493ee:	83 ec 0c             	sub    $0xc,%esp
 80493f1:	68 54 b0 04 08       	push   $0x804b054
 80493f6:	e8 25 fd ff ff       	call   8049120 <puts@plt>
 80493fb:	83 c4 10             	add    $0x10,%esp
 80493fe:	83 ec 0c             	sub    $0xc,%esp
 8049401:	6a 00                	push   $0x0
 8049403:	e8 cf 09 00 00       	call   8049dd7 <validate>
 8049408:	83 c4 10             	add    $0x10,%esp
 804940b:	83 ec 0c             	sub    $0xc,%esp
 804940e:	6a 00                	push   $0x0
 8049410:	e8 1b fd ff ff       	call   8049130 <exit@plt>

08049415 <fizz>:
 8049415:	55                   	push   %ebp
 8049416:	89 e5                	mov    %esp,%ebp
 8049418:	83 ec 08             	sub    $0x8,%esp
 804941b:	8b 55 08             	mov    0x8(%ebp),%edx
 804941e:	a1 20 d2 04 08       	mov    0x804d220,%eax
 8049423:	39 c2                	cmp    %eax,%edx
 8049425:	75 22                	jne    8049449 <fizz+0x34>
 8049427:	83 ec 08             	sub    $0x8,%esp
 804942a:	ff 75 08             	pushl  0x8(%ebp)
 804942d:	68 6f b0 04 08       	push   $0x804b06f
 8049432:	e8 29 fc ff ff       	call   8049060 <printf@plt>
 8049437:	83 c4 10             	add    $0x10,%esp
 804943a:	83 ec 0c             	sub    $0xc,%esp
 804943d:	6a 01                	push   $0x1
 804943f:	e8 93 09 00 00       	call   8049dd7 <validate>
 8049444:	83 c4 10             	add    $0x10,%esp
 8049447:	eb 13                	jmp    804945c <fizz+0x47>
 8049449:	83 ec 08             	sub    $0x8,%esp
 804944c:	ff 75 08             	pushl  0x8(%ebp)
 804944f:	68 90 b0 04 08       	push   $0x804b090
 8049454:	e8 07 fc ff ff       	call   8049060 <printf@plt>
 8049459:	83 c4 10             	add    $0x10,%esp
 804945c:	83 ec 0c             	sub    $0xc,%esp
 804945f:	6a 00                	push   $0x0
 8049461:	e8 ca fc ff ff       	call   8049130 <exit@plt>

08049466 <bang>:
 8049466:	55                   	push   %ebp
 8049467:	89 e5                	mov    %esp,%ebp
 8049469:	83 ec 08             	sub    $0x8,%esp
 804946c:	a1 28 d2 04 08       	mov    0x804d228,%eax
 8049471:	89 c2                	mov    %eax,%edx
 8049473:	a1 20 d2 04 08       	mov    0x804d220,%eax
 8049478:	39 c2                	cmp    %eax,%edx
 804947a:	75 25                	jne    80494a1 <bang+0x3b>
 804947c:	a1 28 d2 04 08       	mov    0x804d228,%eax
 8049481:	83 ec 08             	sub    $0x8,%esp
 8049484:	50                   	push   %eax
 8049485:	68 b0 b0 04 08       	push   $0x804b0b0
 804948a:	e8 d1 fb ff ff       	call   8049060 <printf@plt>
 804948f:	83 c4 10             	add    $0x10,%esp
 8049492:	83 ec 0c             	sub    $0xc,%esp
 8049495:	6a 02                	push   $0x2
 8049497:	e8 3b 09 00 00       	call   8049dd7 <validate>
 804949c:	83 c4 10             	add    $0x10,%esp
 804949f:	eb 16                	jmp    80494b7 <bang+0x51>
 80494a1:	a1 28 d2 04 08       	mov    0x804d228,%eax
 80494a6:	83 ec 08             	sub    $0x8,%esp
 80494a9:	50                   	push   %eax
 80494aa:	68 d5 b0 04 08       	push   $0x804b0d5
 80494af:	e8 ac fb ff ff       	call   8049060 <printf@plt>
 80494b4:	83 c4 10             	add    $0x10,%esp
 80494b7:	83 ec 0c             	sub    $0xc,%esp
 80494ba:	6a 00                	push   $0x0
 80494bc:	e8 6f fc ff ff       	call   8049130 <exit@plt>

080494c1 <eval2equal>:
 80494c1:	55                   	push   %ebp
 80494c2:	89 e5                	mov    %esp,%ebp
 80494c4:	81 ec 98 00 00 00    	sub    $0x98,%esp
 80494ca:	e8 61 fd ff ff       	call   8049230 <random@plt>
 80494cf:	89 c1                	mov    %eax,%ecx
 80494d1:	ba 7f e0 07 7e       	mov    $0x7e07e07f,%edx
 80494d6:	89 c8                	mov    %ecx,%eax
 80494d8:	f7 ea                	imul   %edx
 80494da:	c1 fa 06             	sar    $0x6,%edx
 80494dd:	89 c8                	mov    %ecx,%eax
 80494df:	c1 f8 1f             	sar    $0x1f,%eax
 80494e2:	29 c2                	sub    %eax,%edx
 80494e4:	89 d0                	mov    %edx,%eax
 80494e6:	69 c0 82 00 00 00    	imul   $0x82,%eax,%eax
 80494ec:	29 c1                	sub    %eax,%ecx
 80494ee:	89 c8                	mov    %ecx,%eax
 80494f0:	89 c2                	mov    %eax,%edx
 80494f2:	8d 85 68 ff ff ff    	lea    -0x98(%ebp),%eax
 80494f8:	01 d0                	add    %edx,%eax
 80494fa:	89 45 f4             	mov    %eax,-0xc(%ebp)
 80494fd:	83 ec 04             	sub    $0x4,%esp
 8049500:	ff 75 0c             	pushl  0xc(%ebp)
 8049503:	68 f3 b0 04 08       	push   $0x804b0f3
 8049508:	ff 75 f4             	pushl  -0xc(%ebp)
 804950b:	e8 f0 fc ff ff       	call   8049200 <sprintf@plt>
 8049510:	83 c4 10             	add    $0x10,%esp
 8049513:	83 ec 04             	sub    $0x4,%esp
 8049516:	6a 09                	push   $0x9
 8049518:	ff 75 f4             	pushl  -0xc(%ebp)
 804951b:	ff 75 08             	pushl  0x8(%ebp)
 804951e:	e8 8d fb ff ff       	call   80490b0 <memcmp@plt>
 8049523:	83 c4 10             	add    $0x10,%esp
 8049526:	85 c0                	test   %eax,%eax
 8049528:	0f 94 c0             	sete   %al
 804952b:	0f b6 c0             	movzbl %al,%eax
 804952e:	c9                   	leave  
 804952f:	c3                   	ret    

08049530 <rumble>:
 8049530:	55                   	push   %ebp
 8049531:	89 e5                	mov    %esp,%ebp
 8049533:	83 ec 08             	sub    $0x8,%esp
 8049536:	a1 20 d2 04 08       	mov    0x804d220,%eax
 804953b:	83 ec 08             	sub    $0x8,%esp
 804953e:	50                   	push   %eax
 804953f:	ff 75 08             	pushl  0x8(%ebp)
 8049542:	e8 7a ff ff ff       	call   80494c1 <eval2equal>
 8049547:	83 c4 10             	add    $0x10,%esp
 804954a:	85 c0                	test   %eax,%eax
 804954c:	74 22                	je     8049570 <rumble+0x40>
 804954e:	83 ec 08             	sub    $0x8,%esp
 8049551:	ff 75 08             	pushl  0x8(%ebp)
 8049554:	68 f8 b0 04 08       	push   $0x804b0f8
 8049559:	e8 02 fb ff ff       	call   8049060 <printf@plt>
 804955e:	83 c4 10             	add    $0x10,%esp
 8049561:	83 ec 0c             	sub    $0xc,%esp
 8049564:	6a 03                	push   $0x3
 8049566:	e8 6c 08 00 00       	call   8049dd7 <validate>
 804956b:	83 c4 10             	add    $0x10,%esp
 804956e:	eb 13                	jmp    8049583 <rumble+0x53>
 8049570:	83 ec 08             	sub    $0x8,%esp
 8049573:	ff 75 08             	pushl  0x8(%ebp)
 8049576:	68 1c b1 04 08       	push   $0x804b11c
 804957b:	e8 e0 fa ff ff       	call   8049060 <printf@plt>
 8049580:	83 c4 10             	add    $0x10,%esp
 8049583:	83 ec 0c             	sub    $0xc,%esp
 8049586:	6a 00                	push   $0x0
 8049588:	e8 a3 fb ff ff       	call   8049130 <exit@plt>

0804958d <test>:
 804958d:	55                   	push   %ebp
 804958e:	89 e5                	mov    %esp,%ebp
 8049590:	83 ec 18             	sub    $0x18,%esp
 8049593:	e8 4c 04 00 00       	call   80499e4 <uniqueval>
 8049598:	89 45 f0             	mov    %eax,-0x10(%ebp)
 804959b:	e8 ba 06 00 00       	call   8049c5a <getbuf>
 80495a0:	89 45 f4             	mov    %eax,-0xc(%ebp)
 80495a3:	e8 3c 04 00 00       	call   80499e4 <uniqueval>
 80495a8:	89 c2                	mov    %eax,%edx
 80495aa:	8b 45 f0             	mov    -0x10(%ebp),%eax
 80495ad:	39 c2                	cmp    %eax,%edx
 80495af:	74 12                	je     80495c3 <test+0x36>
 80495b1:	83 ec 0c             	sub    $0xc,%esp
 80495b4:	68 40 b1 04 08       	push   $0x804b140
 80495b9:	e8 62 fb ff ff       	call   8049120 <puts@plt>
 80495be:	83 c4 10             	add    $0x10,%esp
 80495c1:	eb 41                	jmp    8049604 <test+0x77>
 80495c3:	8b 55 f4             	mov    -0xc(%ebp),%edx
 80495c6:	a1 20 d2 04 08       	mov    0x804d220,%eax
 80495cb:	39 c2                	cmp    %eax,%edx
 80495cd:	75 22                	jne    80495f1 <test+0x64>
 80495cf:	83 ec 08             	sub    $0x8,%esp
 80495d2:	ff 75 f4             	pushl  -0xc(%ebp)
 80495d5:	68 69 b1 04 08       	push   $0x804b169
 80495da:	e8 81 fa ff ff       	call   8049060 <printf@plt>
 80495df:	83 c4 10             	add    $0x10,%esp
 80495e2:	83 ec 0c             	sub    $0xc,%esp
 80495e5:	6a 04                	push   $0x4
 80495e7:	e8 eb 07 00 00       	call   8049dd7 <validate>
 80495ec:	83 c4 10             	add    $0x10,%esp
 80495ef:	eb 13                	jmp    8049604 <test+0x77>
 80495f1:	83 ec 08             	sub    $0x8,%esp
 80495f4:	ff 75 f4             	pushl  -0xc(%ebp)
 80495f7:	68 86 b1 04 08       	push   $0x804b186
 80495fc:	e8 5f fa ff ff       	call   8049060 <printf@plt>
 8049601:	83 c4 10             	add    $0x10,%esp
 8049604:	90                   	nop
 8049605:	c9                   	leave  
 8049606:	c3                   	ret    

08049607 <testn>:
 8049607:	55                   	push   %ebp
 8049608:	89 e5                	mov    %esp,%ebp
 804960a:	83 ec 18             	sub    $0x18,%esp
 804960d:	e8 d2 03 00 00       	call   80499e4 <uniqueval>
 8049612:	89 45 f0             	mov    %eax,-0x10(%ebp)
 8049615:	e8 5c 06 00 00       	call   8049c76 <getbufn>
 804961a:	89 45 f4             	mov    %eax,-0xc(%ebp)
 804961d:	e8 c2 03 00 00       	call   80499e4 <uniqueval>
 8049622:	89 c2                	mov    %eax,%edx
 8049624:	8b 45 f0             	mov    -0x10(%ebp),%eax
 8049627:	39 c2                	cmp    %eax,%edx
 8049629:	74 12                	je     804963d <testn+0x36>
 804962b:	83 ec 0c             	sub    $0xc,%esp
 804962e:	68 40 b1 04 08       	push   $0x804b140
 8049633:	e8 e8 fa ff ff       	call   8049120 <puts@plt>
 8049638:	83 c4 10             	add    $0x10,%esp
 804963b:	eb 41                	jmp    804967e <testn+0x77>
 804963d:	8b 55 f4             	mov    -0xc(%ebp),%edx
 8049640:	a1 20 d2 04 08       	mov    0x804d220,%eax
 8049645:	39 c2                	cmp    %eax,%edx
 8049647:	75 22                	jne    804966b <testn+0x64>
 8049649:	83 ec 08             	sub    $0x8,%esp
 804964c:	ff 75 f4             	pushl  -0xc(%ebp)
 804964f:	68 a4 b1 04 08       	push   $0x804b1a4
 8049654:	e8 07 fa ff ff       	call   8049060 <printf@plt>
 8049659:	83 c4 10             	add    $0x10,%esp
 804965c:	83 ec 0c             	sub    $0xc,%esp
 804965f:	6a 05                	push   $0x5
 8049661:	e8 71 07 00 00       	call   8049dd7 <validate>
 8049666:	83 c4 10             	add    $0x10,%esp
 8049669:	eb 13                	jmp    804967e <testn+0x77>
 804966b:	83 ec 08             	sub    $0x8,%esp
 804966e:	ff 75 f4             	pushl  -0xc(%ebp)
 8049671:	68 c4 b1 04 08       	push   $0x804b1c4
 8049676:	e8 e5 f9 ff ff       	call   8049060 <printf@plt>
 804967b:	83 c4 10             	add    $0x10,%esp
 804967e:	90                   	nop
 804967f:	c9                   	leave  
 8049680:	c3                   	ret    

08049681 <save_char>:
 8049681:	55                   	push   %ebp
 8049682:	89 e5                	mov    %esp,%ebp
 8049684:	83 ec 04             	sub    $0x4,%esp
 8049687:	8b 45 08             	mov    0x8(%ebp),%eax
 804968a:	88 45 fc             	mov    %al,-0x4(%ebp)
 804968d:	a1 2c d2 04 08       	mov    0x804d22c,%eax
 8049692:	3d ff 03 00 00       	cmp    $0x3ff,%eax
 8049697:	7f 70                	jg     8049709 <save_char+0x88>
 8049699:	0f b6 45 fc          	movzbl -0x4(%ebp),%eax
 804969d:	c0 f8 04             	sar    $0x4,%al
 80496a0:	0f be c0             	movsbl %al,%eax
 80496a3:	83 e0 0f             	and    $0xf,%eax
 80496a6:	89 c1                	mov    %eax,%ecx
 80496a8:	8b 15 2c d2 04 08    	mov    0x804d22c,%edx
 80496ae:	89 d0                	mov    %edx,%eax
 80496b0:	01 c0                	add    %eax,%eax
 80496b2:	01 c2                	add    %eax,%edx
 80496b4:	0f b6 81 b4 d1 04 08 	movzbl 0x804d1b4(%ecx),%eax
 80496bb:	88 82 60 e2 04 08    	mov    %al,0x804e260(%edx)
 80496c1:	0f be 45 fc          	movsbl -0x4(%ebp),%eax
 80496c5:	83 e0 0f             	and    $0xf,%eax
 80496c8:	89 c1                	mov    %eax,%ecx
 80496ca:	8b 15 2c d2 04 08    	mov    0x804d22c,%edx
 80496d0:	89 d0                	mov    %edx,%eax
 80496d2:	01 c0                	add    %eax,%eax
 80496d4:	01 d0                	add    %edx,%eax
 80496d6:	8d 50 01             	lea    0x1(%eax),%edx
 80496d9:	0f b6 81 b4 d1 04 08 	movzbl 0x804d1b4(%ecx),%eax
 80496e0:	88 82 60 e2 04 08    	mov    %al,0x804e260(%edx)
 80496e6:	8b 15 2c d2 04 08    	mov    0x804d22c,%edx
 80496ec:	89 d0                	mov    %edx,%eax
 80496ee:	01 c0                	add    %eax,%eax
 80496f0:	01 d0                	add    %edx,%eax
 80496f2:	83 c0 02             	add    $0x2,%eax
 80496f5:	c6 80 60 e2 04 08 20 	movb   $0x20,0x804e260(%eax)
 80496fc:	a1 2c d2 04 08       	mov    0x804d22c,%eax
 8049701:	83 c0 01             	add    $0x1,%eax
 8049704:	a3 2c d2 04 08       	mov    %eax,0x804d22c
 8049709:	90                   	nop
 804970a:	c9                   	leave  
 804970b:	c3                   	ret    

0804970c <save_term>:
 804970c:	55                   	push   %ebp
 804970d:	89 e5                	mov    %esp,%ebp
 804970f:	8b 15 2c d2 04 08    	mov    0x804d22c,%edx
 8049715:	89 d0                	mov    %edx,%eax
 8049717:	01 c0                	add    %eax,%eax
 8049719:	01 d0                	add    %edx,%eax
 804971b:	c6 80 60 e2 04 08 00 	movb   $0x0,0x804e260(%eax)
 8049722:	90                   	nop
 8049723:	5d                   	pop    %ebp
 8049724:	c3                   	ret    

08049725 <Gets>:
 8049725:	55                   	push   %ebp
 8049726:	89 e5                	mov    %esp,%ebp
 8049728:	83 ec 18             	sub    $0x18,%esp
 804972b:	8b 45 08             	mov    0x8(%ebp),%eax
 804972e:	89 45 f4             	mov    %eax,-0xc(%ebp)
 8049731:	c7 05 2c d2 04 08 00 	movl   $0x0,0x804d22c
 8049738:	00 00 00 
 804973b:	eb 1d                	jmp    804975a <Gets+0x35>
 804973d:	8b 45 f4             	mov    -0xc(%ebp),%eax
 8049740:	8d 50 01             	lea    0x1(%eax),%edx
 8049743:	89 55 f4             	mov    %edx,-0xc(%ebp)
 8049746:	8b 55 f0             	mov    -0x10(%ebp),%edx
 8049749:	88 10                	mov    %dl,(%eax)
 804974b:	8b 45 f0             	mov    -0x10(%ebp),%eax
 804974e:	0f be c0             	movsbl %al,%eax
 8049751:	50                   	push   %eax
 8049752:	e8 2a ff ff ff       	call   8049681 <save_char>
 8049757:	83 c4 04             	add    $0x4,%esp
 804975a:	a1 1c d2 04 08       	mov    0x804d21c,%eax
 804975f:	83 ec 0c             	sub    $0xc,%esp
 8049762:	50                   	push   %eax
 8049763:	e8 b8 fa ff ff       	call   8049220 <getc@plt>
 8049768:	83 c4 10             	add    $0x10,%esp
 804976b:	89 45 f0             	mov    %eax,-0x10(%ebp)
 804976e:	83 7d f0 ff          	cmpl   $0xffffffff,-0x10(%ebp)
 8049772:	74 06                	je     804977a <Gets+0x55>
 8049774:	83 7d f0 0a          	cmpl   $0xa,-0x10(%ebp)
 8049778:	75 c3                	jne    804973d <Gets+0x18>
 804977a:	8b 45 f4             	mov    -0xc(%ebp),%eax
 804977d:	8d 50 01             	lea    0x1(%eax),%edx
 8049780:	89 55 f4             	mov    %edx,-0xc(%ebp)
 8049783:	c6 00 00             	movb   $0x0,(%eax)
 8049786:	e8 81 ff ff ff       	call   804970c <save_term>
 804978b:	8b 45 08             	mov    0x8(%ebp),%eax
 804978e:	c9                   	leave  
 804978f:	c3                   	ret    

08049790 <usage>:
 8049790:	55                   	push   %ebp
 8049791:	89 e5                	mov    %esp,%ebp
 8049793:	83 ec 08             	sub    $0x8,%esp
 8049796:	83 ec 08             	sub    $0x8,%esp
 8049799:	ff 75 08             	pushl  0x8(%ebp)
 804979c:	68 e0 b1 04 08       	push   $0x804b1e0
 80497a1:	e8 ba f8 ff ff       	call   8049060 <printf@plt>
 80497a6:	83 c4 10             	add    $0x10,%esp
 80497a9:	83 ec 0c             	sub    $0xc,%esp
 80497ac:	68 fe b1 04 08       	push   $0x804b1fe
 80497b1:	e8 6a f9 ff ff       	call   8049120 <puts@plt>
 80497b6:	83 c4 10             	add    $0x10,%esp
 80497b9:	83 ec 0c             	sub    $0xc,%esp
 80497bc:	68 14 b2 04 08       	push   $0x804b214
 80497c1:	e8 5a f9 ff ff       	call   8049120 <puts@plt>
 80497c6:	83 c4 10             	add    $0x10,%esp
 80497c9:	83 ec 0c             	sub    $0xc,%esp
 80497cc:	68 30 b2 04 08       	push   $0x804b230
 80497d1:	e8 4a f9 ff ff       	call   8049120 <puts@plt>
 80497d6:	83 c4 10             	add    $0x10,%esp
 80497d9:	83 ec 0c             	sub    $0xc,%esp
 80497dc:	68 6c b2 04 08       	push   $0x804b26c
 80497e1:	e8 3a f9 ff ff       	call   8049120 <puts@plt>
 80497e6:	83 c4 10             	add    $0x10,%esp
 80497e9:	83 ec 0c             	sub    $0xc,%esp
 80497ec:	6a 00                	push   $0x0
 80497ee:	e8 3d f9 ff ff       	call   8049130 <exit@plt>

080497f3 <bushandler>:
 80497f3:	55                   	push   %ebp
 80497f4:	89 e5                	mov    %esp,%ebp
 80497f6:	83 ec 08             	sub    $0x8,%esp
 80497f9:	83 ec 0c             	sub    $0xc,%esp
 80497fc:	68 94 b2 04 08       	push   $0x804b294
 8049801:	e8 1a f9 ff ff       	call   8049120 <puts@plt>
 8049806:	83 c4 10             	add    $0x10,%esp
 8049809:	83 ec 0c             	sub    $0xc,%esp
 804980c:	68 b4 b2 04 08       	push   $0x804b2b4
 8049811:	e8 0a f9 ff ff       	call   8049120 <puts@plt>
 8049816:	83 c4 10             	add    $0x10,%esp
 8049819:	83 ec 0c             	sub    $0xc,%esp
 804981c:	6a 00                	push   $0x0
 804981e:	e8 0d f9 ff ff       	call   8049130 <exit@plt>

08049823 <seghandler>:
 8049823:	55                   	push   %ebp
 8049824:	89 e5                	mov    %esp,%ebp
 8049826:	83 ec 08             	sub    $0x8,%esp
 8049829:	83 ec 0c             	sub    $0xc,%esp
 804982c:	68 cc b2 04 08       	push   $0x804b2cc
 8049831:	e8 ea f8 ff ff       	call   8049120 <puts@plt>
 8049836:	83 c4 10             	add    $0x10,%esp
 8049839:	83 ec 0c             	sub    $0xc,%esp
 804983c:	68 b4 b2 04 08       	push   $0x804b2b4
 8049841:	e8 da f8 ff ff       	call   8049120 <puts@plt>
 8049846:	83 c4 10             	add    $0x10,%esp
 8049849:	83 ec 0c             	sub    $0xc,%esp
 804984c:	6a 00                	push   $0x0
 804984e:	e8 dd f8 ff ff       	call   8049130 <exit@plt>

08049853 <illegalhandler>:
 8049853:	55                   	push   %ebp
 8049854:	89 e5                	mov    %esp,%ebp
 8049856:	83 ec 08             	sub    $0x8,%esp
 8049859:	83 ec 0c             	sub    $0xc,%esp
 804985c:	68 f4 b2 04 08       	push   $0x804b2f4
 8049861:	e8 ba f8 ff ff       	call   8049120 <puts@plt>
 8049866:	83 c4 10             	add    $0x10,%esp
 8049869:	83 ec 0c             	sub    $0xc,%esp
 804986c:	68 b4 b2 04 08       	push   $0x804b2b4
 8049871:	e8 aa f8 ff ff       	call   8049120 <puts@plt>
 8049876:	83 c4 10             	add    $0x10,%esp
 8049879:	83 ec 0c             	sub    $0xc,%esp
 804987c:	6a 00                	push   $0x0
 804987e:	e8 ad f8 ff ff       	call   8049130 <exit@plt>

08049883 <launch>:
 8049883:	55                   	push   %ebp
 8049884:	89 e5                	mov    %esp,%ebp
 8049886:	83 ec 58             	sub    $0x58,%esp
 8049889:	c7 45 f4 00 00 00 00 	movl   $0x0,-0xc(%ebp)
 8049890:	8d 45 b0             	lea    -0x50(%ebp),%eax
 8049893:	25 f0 3f 00 00       	and    $0x3ff0,%eax
 8049898:	89 45 f4             	mov    %eax,-0xc(%ebp)
 804989b:	8b 55 0c             	mov    0xc(%ebp),%edx
 804989e:	8b 45 f4             	mov    -0xc(%ebp),%eax
 80498a1:	01 d0                	add    %edx,%eax
 80498a3:	8d 50 0c             	lea    0xc(%eax),%edx
 80498a6:	b8 10 00 00 00       	mov    $0x10,%eax
 80498ab:	83 e8 01             	sub    $0x1,%eax
 80498ae:	01 d0                	add    %edx,%eax
 80498b0:	b9 10 00 00 00       	mov    $0x10,%ecx
 80498b5:	ba 00 00 00 00       	mov    $0x0,%edx
 80498ba:	f7 f1                	div    %ecx
 80498bc:	6b c0 10             	imul   $0x10,%eax,%eax
 80498bf:	29 c4                	sub    %eax,%esp
 80498c1:	89 e0                	mov    %esp,%eax
 80498c3:	83 c0 0f             	add    $0xf,%eax
 80498c6:	c1 e8 04             	shr    $0x4,%eax
 80498c9:	c1 e0 04             	shl    $0x4,%eax
 80498cc:	89 45 f0             	mov    %eax,-0x10(%ebp)
 80498cf:	83 ec 04             	sub    $0x4,%esp
 80498d2:	ff 75 f4             	pushl  -0xc(%ebp)
 80498d5:	68 f4 00 00 00       	push   $0xf4
 80498da:	ff 75 f0             	pushl  -0x10(%ebp)
 80498dd:	e8 de f8 ff ff       	call   80491c0 <memset@plt>
 80498e2:	83 c4 10             	add    $0x10,%esp
 80498e5:	83 ec 0c             	sub    $0xc,%esp
 80498e8:	68 1f b3 04 08       	push   $0x804b31f
 80498ed:	e8 6e f7 ff ff       	call   8049060 <printf@plt>
 80498f2:	83 c4 10             	add    $0x10,%esp
 80498f5:	83 7d 08 00          	cmpl   $0x0,0x8(%ebp)
 80498f9:	74 07                	je     8049902 <launch+0x7f>
 80498fb:	e8 07 fd ff ff       	call   8049607 <testn>
 8049900:	eb 05                	jmp    8049907 <launch+0x84>
 8049902:	e8 86 fc ff ff       	call   804958d <test>
 8049907:	a1 24 d2 04 08       	mov    0x804d224,%eax
 804990c:	85 c0                	test   %eax,%eax
 804990e:	75 1a                	jne    804992a <launch+0xa7>
 8049910:	83 ec 0c             	sub    $0xc,%esp
 8049913:	68 b4 b2 04 08       	push   $0x804b2b4
 8049918:	e8 03 f8 ff ff       	call   8049120 <puts@plt>
 804991d:	83 c4 10             	add    $0x10,%esp
 8049920:	c7 05 24 d2 04 08 00 	movl   $0x0,0x804d224
 8049927:	00 00 00 
 804992a:	90                   	nop
 804992b:	c9                   	leave  
 804992c:	c3                   	ret    

0804992d <launcher>:
 804992d:	55                   	push   %ebp
 804992e:	89 e5                	mov    %esp,%ebp
 8049930:	83 ec 18             	sub    $0x18,%esp
 8049933:	8b 45 08             	mov    0x8(%ebp),%eax
 8049936:	a3 30 d2 04 08       	mov    %eax,0x804d230
 804993b:	8b 45 0c             	mov    0xc(%ebp),%eax
 804993e:	a3 34 d2 04 08       	mov    %eax,0x804d234
 8049943:	83 ec 08             	sub    $0x8,%esp
 8049946:	6a 00                	push   $0x0
 8049948:	6a 00                	push   $0x0
 804994a:	68 32 01 00 00       	push   $0x132
 804994f:	6a 07                	push   $0x7
 8049951:	68 00 00 10 00       	push   $0x100000
 8049956:	68 00 f0 58 55       	push   $0x5558f000
 804995b:	e8 f0 f7 ff ff       	call   8049150 <mmap@plt>
 8049960:	83 c4 20             	add    $0x20,%esp
 8049963:	89 45 f4             	mov    %eax,-0xc(%ebp)
 8049966:	81 7d f4 00 f0 58 55 	cmpl   $0x5558f000,-0xc(%ebp)
 804996d:	74 21                	je     8049990 <launcher+0x63>
 804996f:	a1 e0 d1 04 08       	mov    0x804d1e0,%eax
 8049974:	50                   	push   %eax
 8049975:	6a 47                	push   $0x47
 8049977:	6a 01                	push   $0x1
 8049979:	68 2c b3 04 08       	push   $0x804b32c
 804997e:	e8 5d f7 ff ff       	call   80490e0 <fwrite@plt>
 8049983:	83 c4 10             	add    $0x10,%esp
 8049986:	83 ec 0c             	sub    $0xc,%esp
 8049989:	6a 01                	push   $0x1
 804998b:	e8 a0 f7 ff ff       	call   8049130 <exit@plt>
 8049990:	8b 45 f4             	mov    -0xc(%ebp),%eax
 8049993:	05 f8 ff 0f 00       	add    $0xffff8,%eax
 8049998:	a3 40 e2 04 08       	mov    %eax,0x804e240
 804999d:	8b 15 40 e2 04 08    	mov    0x804e240,%edx
 80499a3:	89 e0                	mov    %esp,%eax
 80499a5:	89 d4                	mov    %edx,%esp
 80499a7:	89 c2                	mov    %eax,%edx
 80499a9:	89 15 38 d2 04 08    	mov    %edx,0x804d238
 80499af:	8b 15 34 d2 04 08    	mov    0x804d234,%edx
 80499b5:	a1 30 d2 04 08       	mov    0x804d230,%eax
 80499ba:	83 ec 08             	sub    $0x8,%esp
 80499bd:	52                   	push   %edx
 80499be:	50                   	push   %eax
 80499bf:	e8 bf fe ff ff       	call   8049883 <launch>
 80499c4:	83 c4 10             	add    $0x10,%esp
 80499c7:	a1 38 d2 04 08       	mov    0x804d238,%eax
 80499cc:	89 c4                	mov    %eax,%esp
 80499ce:	83 ec 08             	sub    $0x8,%esp
 80499d1:	68 00 00 10 00       	push   $0x100000
 80499d6:	ff 75 f4             	pushl  -0xc(%ebp)
 80499d9:	e8 12 f8 ff ff       	call   80491f0 <munmap@plt>
 80499de:	83 c4 10             	add    $0x10,%esp
 80499e1:	90                   	nop
 80499e2:	c9                   	leave  
 80499e3:	c3                   	ret    

080499e4 <uniqueval>:
 80499e4:	55                   	push   %ebp
 80499e5:	89 e5                	mov    %esp,%ebp
 80499e7:	83 ec 08             	sub    $0x8,%esp
 80499ea:	e8 11 f7 ff ff       	call   8049100 <getpid@plt>
 80499ef:	83 ec 0c             	sub    $0xc,%esp
 80499f2:	50                   	push   %eax
 80499f3:	e8 58 f6 ff ff       	call   8049050 <srandom@plt>
 80499f8:	83 c4 10             	add    $0x10,%esp
 80499fb:	e8 30 f8 ff ff       	call   8049230 <random@plt>
 8049a00:	c9                   	leave  
 8049a01:	c3                   	ret    

08049a02 <main>:
 8049a02:	8d 4c 24 04          	lea    0x4(%esp),%ecx
 8049a06:	83 e4 f0             	and    $0xfffffff0,%esp
 8049a09:	ff 71 fc             	pushl  -0x4(%ecx)
 8049a0c:	55                   	push   %ebp
 8049a0d:	89 e5                	mov    %esp,%ebp
 8049a0f:	53                   	push   %ebx
 8049a10:	51                   	push   %ecx
 8049a11:	83 ec 20             	sub    $0x20,%esp
 8049a14:	89 cb                	mov    %ecx,%ebx
 8049a16:	c7 45 e8 00 00 00 00 	movl   $0x0,-0x18(%ebp)
 8049a1d:	c7 45 f4 00 00 00 00 	movl   $0x0,-0xc(%ebp)
 8049a24:	c7 45 ec 01 00 00 00 	movl   $0x1,-0x14(%ebp)
 8049a2b:	83 ec 08             	sub    $0x8,%esp
 8049a2e:	68 23 98 04 08       	push   $0x8049823
 8049a33:	6a 0b                	push   $0xb
 8049a35:	e8 66 f6 ff ff       	call   80490a0 <signal@plt>
 8049a3a:	83 c4 10             	add    $0x10,%esp
 8049a3d:	83 ec 08             	sub    $0x8,%esp
 8049a40:	68 f3 97 04 08       	push   $0x80497f3
 8049a45:	6a 07                	push   $0x7
 8049a47:	e8 54 f6 ff ff       	call   80490a0 <signal@plt>
 8049a4c:	83 c4 10             	add    $0x10,%esp
 8049a4f:	83 ec 08             	sub    $0x8,%esp
 8049a52:	68 53 98 04 08       	push   $0x8049853
 8049a57:	6a 04                	push   $0x4
 8049a59:	e8 42 f6 ff ff       	call   80490a0 <signal@plt>
 8049a5e:	83 c4 10             	add    $0x10,%esp
 8049a61:	a1 00 d2 04 08       	mov    0x804d200,%eax
 8049a66:	a3 1c d2 04 08       	mov    %eax,0x804d21c
 8049a6b:	e9 a3 00 00 00       	jmp    8049b13 <main+0x111>
 8049a70:	0f be 45 e7          	movsbl -0x19(%ebp),%eax
 8049a74:	83 e8 67             	sub    $0x67,%eax
 8049a77:	83 f8 0e             	cmp    $0xe,%eax
 8049a7a:	0f 87 82 00 00 00    	ja     8049b02 <main+0x100>
 8049a80:	8b 04 85 ec b3 04 08 	mov    0x804b3ec(,%eax,4),%eax
 8049a87:	ff e0                	jmp    *%eax
 8049a89:	8b 43 04             	mov    0x4(%ebx),%eax
 8049a8c:	8b 00                	mov    (%eax),%eax
 8049a8e:	83 ec 0c             	sub    $0xc,%esp
 8049a91:	50                   	push   %eax
 8049a92:	e8 f9 fc ff ff       	call   8049790 <usage>
 8049a97:	83 c4 10             	add    $0x10,%esp
 8049a9a:	eb 77                	jmp    8049b13 <main+0x111>
 8049a9c:	c7 45 f4 01 00 00 00 	movl   $0x1,-0xc(%ebp)
 8049aa3:	c7 45 ec 05 00 00 00 	movl   $0x5,-0x14(%ebp)
 8049aaa:	eb 67                	jmp    8049b13 <main+0x111>
 8049aac:	a1 08 d2 04 08       	mov    0x804d208,%eax
 8049ab1:	83 ec 0c             	sub    $0xc,%esp
 8049ab4:	50                   	push   %eax
 8049ab5:	e8 c6 f5 ff ff       	call   8049080 <strdup@plt>
 8049aba:	83 c4 10             	add    $0x10,%esp
 8049abd:	a3 10 d2 04 08       	mov    %eax,0x804d210
 8049ac2:	a1 10 d2 04 08       	mov    0x804d210,%eax
 8049ac7:	83 ec 0c             	sub    $0xc,%esp
 8049aca:	50                   	push   %eax
 8049acb:	e8 d3 10 00 00       	call   804aba3 <gencookie>
 8049ad0:	83 c4 10             	add    $0x10,%esp
 8049ad3:	a3 20 d2 04 08       	mov    %eax,0x804d220
 8049ad8:	eb 39                	jmp    8049b13 <main+0x111>
 8049ada:	83 ec 0c             	sub    $0xc,%esp
 8049add:	68 74 b3 04 08       	push   $0x804b374
 8049ae2:	e8 39 f6 ff ff       	call   8049120 <puts@plt>
 8049ae7:	83 c4 10             	add    $0x10,%esp
 8049aea:	c7 05 14 d2 04 08 00 	movl   $0x0,0x804d214
 8049af1:	00 00 00 
 8049af4:	eb 1d                	jmp    8049b13 <main+0x111>
 8049af6:	c7 05 18 d2 04 08 01 	movl   $0x1,0x804d218
 8049afd:	00 00 00 
 8049b00:	eb 11                	jmp    8049b13 <main+0x111>
 8049b02:	8b 43 04             	mov    0x4(%ebx),%eax
 8049b05:	8b 00                	mov    (%eax),%eax
 8049b07:	83 ec 0c             	sub    $0xc,%esp
 8049b0a:	50                   	push   %eax
 8049b0b:	e8 80 fc ff ff       	call   8049790 <usage>
 8049b10:	83 c4 10             	add    $0x10,%esp
 8049b13:	83 ec 04             	sub    $0x4,%esp
 8049b16:	68 9c b3 04 08       	push   $0x804b39c
 8049b1b:	ff 73 04             	pushl  0x4(%ebx)
 8049b1e:	ff 33                	pushl  (%ebx)
 8049b20:	e8 6b f6 ff ff       	call   8049190 <getopt@plt>
 8049b25:	83 c4 10             	add    $0x10,%esp
 8049b28:	88 45 e7             	mov    %al,-0x19(%ebp)
 8049b2b:	80 7d e7 ff          	cmpb   $0xff,-0x19(%ebp)
 8049b2f:	0f 85 3b ff ff ff    	jne    8049a70 <main+0x6e>
 8049b35:	a1 10 d2 04 08       	mov    0x804d210,%eax
 8049b3a:	85 c0                	test   %eax,%eax
 8049b3c:	75 27                	jne    8049b65 <main+0x163>
 8049b3e:	8b 43 04             	mov    0x4(%ebx),%eax
 8049b41:	8b 00                	mov    (%eax),%eax
 8049b43:	83 ec 08             	sub    $0x8,%esp
 8049b46:	50                   	push   %eax
 8049b47:	68 a4 b3 04 08       	push   $0x804b3a4
 8049b4c:	e8 0f f5 ff ff       	call   8049060 <printf@plt>
 8049b51:	83 c4 10             	add    $0x10,%esp
 8049b54:	8b 43 04             	mov    0x4(%ebx),%eax
 8049b57:	8b 00                	mov    (%eax),%eax
 8049b59:	83 ec 0c             	sub    $0xc,%esp
 8049b5c:	50                   	push   %eax
 8049b5d:	e8 2e fc ff ff       	call   8049790 <usage>
 8049b62:	83 c4 10             	add    $0x10,%esp
 8049b65:	e8 2e 01 00 00       	call   8049c98 <initialize_bomb>
 8049b6a:	a1 10 d2 04 08       	mov    0x804d210,%eax
 8049b6f:	83 ec 08             	sub    $0x8,%esp
 8049b72:	50                   	push   %eax
 8049b73:	68 d0 b3 04 08       	push   $0x804b3d0
 8049b78:	e8 e3 f4 ff ff       	call   8049060 <printf@plt>
 8049b7d:	83 c4 10             	add    $0x10,%esp
 8049b80:	a1 20 d2 04 08       	mov    0x804d220,%eax
 8049b85:	83 ec 08             	sub    $0x8,%esp
 8049b88:	50                   	push   %eax
 8049b89:	68 dc b3 04 08       	push   $0x804b3dc
 8049b8e:	e8 cd f4 ff ff       	call   8049060 <printf@plt>
 8049b93:	83 c4 10             	add    $0x10,%esp
 8049b96:	a1 20 d2 04 08       	mov    0x804d220,%eax
 8049b9b:	83 ec 0c             	sub    $0xc,%esp
 8049b9e:	50                   	push   %eax
 8049b9f:	e8 ac f4 ff ff       	call   8049050 <srandom@plt>
 8049ba4:	83 c4 10             	add    $0x10,%esp
 8049ba7:	e8 84 f6 ff ff       	call   8049230 <random@plt>
 8049bac:	25 f0 0f 00 00       	and    $0xff0,%eax
 8049bb1:	05 00 01 00 00       	add    $0x100,%eax
 8049bb6:	89 45 e8             	mov    %eax,-0x18(%ebp)
 8049bb9:	8b 45 ec             	mov    -0x14(%ebp),%eax
 8049bbc:	83 ec 08             	sub    $0x8,%esp
 8049bbf:	6a 04                	push   $0x4
 8049bc1:	50                   	push   %eax
 8049bc2:	e8 a9 f6 ff ff       	call   8049270 <calloc@plt>
 8049bc7:	83 c4 10             	add    $0x10,%esp
 8049bca:	89 45 e0             	mov    %eax,-0x20(%ebp)
 8049bcd:	8b 45 e0             	mov    -0x20(%ebp),%eax
 8049bd0:	c7 00 00 00 00 00    	movl   $0x0,(%eax)
 8049bd6:	c7 45 f0 01 00 00 00 	movl   $0x1,-0x10(%ebp)
 8049bdd:	eb 2a                	jmp    8049c09 <main+0x207>
 8049bdf:	e8 4c f6 ff ff       	call   8049230 <random@plt>
 8049be4:	25 f0 00 00 00       	and    $0xf0,%eax
 8049be9:	89 c2                	mov    %eax,%edx
 8049beb:	8b 45 f0             	mov    -0x10(%ebp),%eax
 8049bee:	8d 0c 85 00 00 00 00 	lea    0x0(,%eax,4),%ecx
 8049bf5:	8b 45 e0             	mov    -0x20(%ebp),%eax
 8049bf8:	01 c8                	add    %ecx,%eax
 8049bfa:	b9 80 00 00 00       	mov    $0x80,%ecx
 8049bff:	29 d1                	sub    %edx,%ecx
 8049c01:	89 ca                	mov    %ecx,%edx
 8049c03:	89 10                	mov    %edx,(%eax)
 8049c05:	83 45 f0 01          	addl   $0x1,-0x10(%ebp)
 8049c09:	8b 45 f0             	mov    -0x10(%ebp),%eax
 8049c0c:	3b 45 ec             	cmp    -0x14(%ebp),%eax
 8049c0f:	7c ce                	jl     8049bdf <main+0x1dd>
 8049c11:	c7 45 f0 00 00 00 00 	movl   $0x0,-0x10(%ebp)
 8049c18:	eb 29                	jmp    8049c43 <main+0x241>
 8049c1a:	8b 45 f0             	mov    -0x10(%ebp),%eax
 8049c1d:	8d 14 85 00 00 00 00 	lea    0x0(,%eax,4),%edx
 8049c24:	8b 45 e0             	mov    -0x20(%ebp),%eax
 8049c27:	01 d0                	add    %edx,%eax
 8049c29:	8b 10                	mov    (%eax),%edx
 8049c2b:	8b 45 e8             	mov    -0x18(%ebp),%eax
 8049c2e:	01 d0                	add    %edx,%eax
 8049c30:	83 ec 08             	sub    $0x8,%esp
 8049c33:	50                   	push   %eax
 8049c34:	ff 75 f4             	pushl  -0xc(%ebp)
 8049c37:	e8 f1 fc ff ff       	call   804992d <launcher>
 8049c3c:	83 c4 10             	add    $0x10,%esp
 8049c3f:	83 45 f0 01          	addl   $0x1,-0x10(%ebp)
 8049c43:	8b 45 f0             	mov    -0x10(%ebp),%eax
 8049c46:	3b 45 ec             	cmp    -0x14(%ebp),%eax
 8049c49:	7c cf                	jl     8049c1a <main+0x218>
 8049c4b:	b8 00 00 00 00       	mov    $0x0,%eax
 8049c50:	8d 65 f8             	lea    -0x8(%ebp),%esp
 8049c53:	59                   	pop    %ecx
 8049c54:	5b                   	pop    %ebx
 8049c55:	5d                   	pop    %ebp
 8049c56:	8d 61 fc             	lea    -0x4(%ecx),%esp
 8049c59:	c3                   	ret    

08049c5a <getbuf>:
 8049c5a:	55                   	push   %ebp
 8049c5b:	89 e5                	mov    %esp,%ebp
 8049c5d:	83 ec 58             	sub    $0x58,%esp
 8049c60:	83 ec 0c             	sub    $0xc,%esp
 8049c63:	8d 45 ad             	lea    -0x53(%ebp),%eax
 8049c66:	50                   	push   %eax
 8049c67:	e8 b9 fa ff ff       	call   8049725 <Gets>
 8049c6c:	83 c4 10             	add    $0x10,%esp
 8049c6f:	b8 01 00 00 00       	mov    $0x1,%eax
 8049c74:	c9                   	leave  
 8049c75:	c3                   	ret    

08049c76 <getbufn>:
 8049c76:	55                   	push   %ebp
 8049c77:	89 e5                	mov    %esp,%ebp
 8049c79:	81 ec 58 02 00 00    	sub    $0x258,%esp
 8049c7f:	83 ec 0c             	sub    $0xc,%esp
 8049c82:	8d 85 b2 fd ff ff    	lea    -0x24e(%ebp),%eax
 8049c88:	50                   	push   %eax
 8049c89:	e8 97 fa ff ff       	call   8049725 <Gets>
 8049c8e:	83 c4 10             	add    $0x10,%esp
 8049c91:	b8 01 00 00 00       	mov    $0x1,%eax
 8049c96:	c9                   	leave  
 8049c97:	c3                   	ret    

08049c98 <initialize_bomb>:
 8049c98:	55                   	push   %ebp
 8049c99:	89 e5                	mov    %esp,%ebp
 8049c9b:	81 ec 18 24 00 00    	sub    $0x2418,%esp
 8049ca1:	c7 45 f0 00 00 00 00 	movl   $0x0,-0x10(%ebp)
 8049ca8:	a1 18 d2 04 08       	mov    0x804d218,%eax
 8049cad:	85 c0                	test   %eax,%eax
 8049caf:	74 0d                	je     8049cbe <initialize_bomb+0x26>
 8049cb1:	83 ec 0c             	sub    $0xc,%esp
 8049cb4:	6a ff                	push   $0xffffffff
 8049cb6:	e8 ea 0b 00 00       	call   804a8a5 <init_timeout>
 8049cbb:	83 c4 10             	add    $0x10,%esp
 8049cbe:	a1 14 d2 04 08       	mov    0x804d214,%eax
 8049cc3:	85 c0                	test   %eax,%eax
 8049cc5:	0f 84 09 01 00 00    	je     8049dd4 <initialize_bomb+0x13c>
 8049ccb:	83 ec 08             	sub    $0x8,%esp
 8049cce:	68 00 04 00 00       	push   $0x400
 8049cd3:	8d 85 f0 fb ff ff    	lea    -0x410(%ebp),%eax
 8049cd9:	50                   	push   %eax
 8049cda:	e8 31 f4 ff ff       	call   8049110 <gethostname@plt>
 8049cdf:	83 c4 10             	add    $0x10,%esp
 8049ce2:	85 c0                	test   %eax,%eax
 8049ce4:	74 1a                	je     8049d00 <initialize_bomb+0x68>
 8049ce6:	83 ec 0c             	sub    $0xc,%esp
 8049ce9:	68 28 b4 04 08       	push   $0x804b428
 8049cee:	e8 2d f4 ff ff       	call   8049120 <puts@plt>
 8049cf3:	83 c4 10             	add    $0x10,%esp
 8049cf6:	83 ec 0c             	sub    $0xc,%esp
 8049cf9:	6a 08                	push   $0x8
 8049cfb:	e8 30 f4 ff ff       	call   8049130 <exit@plt>
 8049d00:	c7 45 f4 00 00 00 00 	movl   $0x0,-0xc(%ebp)
 8049d07:	eb 2e                	jmp    8049d37 <initialize_bomb+0x9f>
 8049d09:	8b 45 f4             	mov    -0xc(%ebp),%eax
 8049d0c:	8b 04 85 40 d2 04 08 	mov    0x804d240(,%eax,4),%eax
 8049d13:	83 ec 08             	sub    $0x8,%esp
 8049d16:	8d 95 f0 fb ff ff    	lea    -0x410(%ebp),%edx
 8049d1c:	52                   	push   %edx
 8049d1d:	50                   	push   %eax
 8049d1e:	e8 7d f4 ff ff       	call   80491a0 <strcasecmp@plt>
 8049d23:	83 c4 10             	add    $0x10,%esp
 8049d26:	85 c0                	test   %eax,%eax
 8049d28:	75 09                	jne    8049d33 <initialize_bomb+0x9b>
 8049d2a:	c7 45 f0 01 00 00 00 	movl   $0x1,-0x10(%ebp)
 8049d31:	eb 12                	jmp    8049d45 <initialize_bomb+0xad>
 8049d33:	83 45 f4 01          	addl   $0x1,-0xc(%ebp)
 8049d37:	8b 45 f4             	mov    -0xc(%ebp),%eax
 8049d3a:	8b 04 85 40 d2 04 08 	mov    0x804d240(,%eax,4),%eax
 8049d41:	85 c0                	test   %eax,%eax
 8049d43:	75 c4                	jne    8049d09 <initialize_bomb+0x71>
 8049d45:	83 7d f0 00          	cmpl   $0x0,-0x10(%ebp)
 8049d49:	75 52                	jne    8049d9d <initialize_bomb+0x105>
 8049d4b:	83 ec 08             	sub    $0x8,%esp
 8049d4e:	8d 85 f0 fb ff ff    	lea    -0x410(%ebp),%eax
 8049d54:	50                   	push   %eax
 8049d55:	68 60 b4 04 08       	push   $0x804b460
 8049d5a:	e8 01 f3 ff ff       	call   8049060 <printf@plt>
 8049d5f:	83 c4 10             	add    $0x10,%esp
 8049d62:	c7 45 f4 00 00 00 00 	movl   $0x0,-0xc(%ebp)
 8049d69:	eb 1a                	jmp    8049d85 <initialize_bomb+0xed>
 8049d6b:	8b 45 f4             	mov    -0xc(%ebp),%eax
 8049d6e:	8b 04 85 40 d2 04 08 	mov    0x804d240(,%eax,4),%eax
 8049d75:	83 ec 0c             	sub    $0xc,%esp
 8049d78:	50                   	push   %eax
 8049d79:	e8 a2 f3 ff ff       	call   8049120 <puts@plt>
 8049d7e:	83 c4 10             	add    $0x10,%esp
 8049d81:	83 45 f4 01          	addl   $0x1,-0xc(%ebp)
 8049d85:	8b 45 f4             	mov    -0xc(%ebp),%eax
 8049d88:	8b 04 85 40 d2 04 08 	mov    0x804d240(,%eax,4),%eax
 8049d8f:	85 c0                	test   %eax,%eax
 8049d91:	75 d8                	jne    8049d6b <initialize_bomb+0xd3>
 8049d93:	83 ec 0c             	sub    $0xc,%esp
 8049d96:	6a 08                	push   $0x8
 8049d98:	e8 93 f3 ff ff       	call   8049130 <exit@plt>
 8049d9d:	83 ec 0c             	sub    $0xc,%esp
 8049da0:	8d 85 f0 db ff ff    	lea    -0x2410(%ebp),%eax
 8049da6:	50                   	push   %eax
 8049da7:	e8 38 0b 00 00       	call   804a8e4 <init_driver>
 8049dac:	83 c4 10             	add    $0x10,%esp
 8049daf:	85 c0                	test   %eax,%eax
 8049db1:	79 21                	jns    8049dd4 <initialize_bomb+0x13c>
 8049db3:	83 ec 08             	sub    $0x8,%esp
 8049db6:	8d 85 f0 db ff ff    	lea    -0x2410(%ebp),%eax
 8049dbc:	50                   	push   %eax
 8049dbd:	68 9b b4 04 08       	push   $0x804b49b
 8049dc2:	e8 99 f2 ff ff       	call   8049060 <printf@plt>
 8049dc7:	83 c4 10             	add    $0x10,%esp
 8049dca:	83 ec 0c             	sub    $0xc,%esp
 8049dcd:	6a 08                	push   $0x8
 8049dcf:	e8 5c f3 ff ff       	call   8049130 <exit@plt>
 8049dd4:	90                   	nop
 8049dd5:	c9                   	leave  
 8049dd6:	c3                   	ret    

08049dd7 <validate>:
 8049dd7:	55                   	push   %ebp
 8049dd8:	89 e5                	mov    %esp,%ebp
 8049dda:	81 ec 18 40 00 00    	sub    $0x4018,%esp
 8049de0:	a1 10 d2 04 08       	mov    0x804d210,%eax
 8049de5:	85 c0                	test   %eax,%eax
 8049de7:	75 15                	jne    8049dfe <validate+0x27>
 8049de9:	83 ec 0c             	sub    $0xc,%esp
 8049dec:	68 b0 b4 04 08       	push   $0x804b4b0
 8049df1:	e8 2a f3 ff ff       	call   8049120 <puts@plt>
 8049df6:	83 c4 10             	add    $0x10,%esp
 8049df9:	e9 36 01 00 00       	jmp    8049f34 <validate+0x15d>
 8049dfe:	83 7d 08 00          	cmpl   $0x0,0x8(%ebp)
 8049e02:	78 06                	js     8049e0a <validate+0x33>
 8049e04:	83 7d 08 05          	cmpl   $0x5,0x8(%ebp)
 8049e08:	7e 15                	jle    8049e1f <validate+0x48>
 8049e0a:	83 ec 0c             	sub    $0xc,%esp
 8049e0d:	68 dc b4 04 08       	push   $0x804b4dc
 8049e12:	e8 09 f3 ff ff       	call   8049120 <puts@plt>
 8049e17:	83 c4 10             	add    $0x10,%esp
 8049e1a:	e9 15 01 00 00       	jmp    8049f34 <validate+0x15d>
 8049e1f:	c7 05 24 d2 04 08 01 	movl   $0x1,0x804d224
 8049e26:	00 00 00 
 8049e29:	8b 45 08             	mov    0x8(%ebp),%eax
 8049e2c:	8b 04 85 c4 d1 04 08 	mov    0x804d1c4(,%eax,4),%eax
 8049e33:	8d 50 ff             	lea    -0x1(%eax),%edx
 8049e36:	8b 45 08             	mov    0x8(%ebp),%eax
 8049e39:	89 14 85 c4 d1 04 08 	mov    %edx,0x804d1c4(,%eax,4)
 8049e40:	8b 45 08             	mov    0x8(%ebp),%eax
 8049e43:	8b 04 85 c4 d1 04 08 	mov    0x804d1c4(,%eax,4),%eax
 8049e4a:	85 c0                	test   %eax,%eax
 8049e4c:	7e 15                	jle    8049e63 <validate+0x8c>
 8049e4e:	83 ec 0c             	sub    $0xc,%esp
 8049e51:	68 02 b5 04 08       	push   $0x804b502
 8049e56:	e8 c5 f2 ff ff       	call   8049120 <puts@plt>
 8049e5b:	83 c4 10             	add    $0x10,%esp
 8049e5e:	e9 d1 00 00 00       	jmp    8049f34 <validate+0x15d>
 8049e63:	83 ec 0c             	sub    $0xc,%esp
 8049e66:	68 0d b5 04 08       	push   $0x804b50d
 8049e6b:	e8 b0 f2 ff ff       	call   8049120 <puts@plt>
 8049e70:	83 c4 10             	add    $0x10,%esp
 8049e73:	a1 14 d2 04 08       	mov    0x804d214,%eax
 8049e78:	85 c0                	test   %eax,%eax
 8049e7a:	0f 84 a4 00 00 00    	je     8049f24 <validate+0x14d>
 8049e80:	83 ec 0c             	sub    $0xc,%esp
 8049e83:	68 60 e2 04 08       	push   $0x804e260
 8049e88:	e8 d3 f2 ff ff       	call   8049160 <strlen@plt>
 8049e8d:	83 c4 10             	add    $0x10,%esp
 8049e90:	83 c0 20             	add    $0x20,%eax
 8049e93:	3d 00 20 00 00       	cmp    $0x2000,%eax
 8049e98:	76 15                	jbe    8049eaf <validate+0xd8>
 8049e9a:	83 ec 0c             	sub    $0xc,%esp
 8049e9d:	68 14 b5 04 08       	push   $0x804b514
 8049ea2:	e8 79 f2 ff ff       	call   8049120 <puts@plt>
 8049ea7:	83 c4 10             	add    $0x10,%esp
 8049eaa:	e9 85 00 00 00       	jmp    8049f34 <validate+0x15d>
 8049eaf:	a1 20 d2 04 08       	mov    0x804d220,%eax
 8049eb4:	83 ec 0c             	sub    $0xc,%esp
 8049eb7:	68 60 e2 04 08       	push   $0x804e260
 8049ebc:	50                   	push   %eax
 8049ebd:	ff 75 08             	pushl  0x8(%ebp)
 8049ec0:	68 4b b5 04 08       	push   $0x804b54b
 8049ec5:	8d 85 f4 df ff ff    	lea    -0x200c(%ebp),%eax
 8049ecb:	50                   	push   %eax
 8049ecc:	e8 2f f3 ff ff       	call   8049200 <sprintf@plt>
 8049ed1:	83 c4 20             	add    $0x20,%esp
 8049ed4:	a1 10 d2 04 08       	mov    0x804d210,%eax
 8049ed9:	8d 95 f4 bf ff ff    	lea    -0x400c(%ebp),%edx
 8049edf:	52                   	push   %edx
 8049ee0:	6a 00                	push   $0x0
 8049ee2:	8d 95 f4 df ff ff    	lea    -0x200c(%ebp),%edx
 8049ee8:	52                   	push   %edx
 8049ee9:	50                   	push   %eax
 8049eea:	e8 a8 0b 00 00       	call   804aa97 <driver_post>
 8049eef:	83 c4 10             	add    $0x10,%esp
 8049ef2:	89 45 f4             	mov    %eax,-0xc(%ebp)
 8049ef5:	83 7d f4 00          	cmpl   $0x0,-0xc(%ebp)
 8049ef9:	75 12                	jne    8049f0d <validate+0x136>
 8049efb:	83 ec 0c             	sub    $0xc,%esp
 8049efe:	68 54 b5 04 08       	push   $0x804b554
 8049f03:	e8 18 f2 ff ff       	call   8049120 <puts@plt>
 8049f08:	83 c4 10             	add    $0x10,%esp
 8049f0b:	eb 17                	jmp    8049f24 <validate+0x14d>
 8049f0d:	83 ec 08             	sub    $0x8,%esp
 8049f10:	8d 85 f4 bf ff ff    	lea    -0x400c(%ebp),%eax
 8049f16:	50                   	push   %eax
 8049f17:	68 84 b5 04 08       	push   $0x804b584
 8049f1c:	e8 3f f1 ff ff       	call   8049060 <printf@plt>
 8049f21:	83 c4 10             	add    $0x10,%esp
 8049f24:	83 ec 0c             	sub    $0xc,%esp
 8049f27:	68 c2 b5 04 08       	push   $0x804b5c2
 8049f2c:	e8 ef f1 ff ff       	call   8049120 <puts@plt>
 8049f31:	83 c4 10             	add    $0x10,%esp
 8049f34:	c9                   	leave  
 8049f35:	c3                   	ret    

08049f36 <sigalrm_handler>:
 8049f36:	55                   	push   %ebp
 8049f37:	89 e5                	mov    %esp,%ebp
 8049f39:	83 ec 08             	sub    $0x8,%esp
 8049f3c:	83 ec 08             	sub    $0x8,%esp
 8049f3f:	6a 02                	push   $0x2
 8049f41:	68 cc b5 04 08       	push   $0x804b5cc
 8049f46:	e8 15 f1 ff ff       	call   8049060 <printf@plt>
 8049f4b:	83 c4 10             	add    $0x10,%esp
 8049f4e:	83 ec 0c             	sub    $0xc,%esp
 8049f51:	6a 01                	push   $0x1
 8049f53:	e8 d8 f1 ff ff       	call   8049130 <exit@plt>

08049f58 <rio_readinitb>:
 8049f58:	55                   	push   %ebp
 8049f59:	89 e5                	mov    %esp,%ebp
 8049f5b:	8b 45 08             	mov    0x8(%ebp),%eax
 8049f5e:	8b 55 0c             	mov    0xc(%ebp),%edx
 8049f61:	89 10                	mov    %edx,(%eax)
 8049f63:	8b 45 08             	mov    0x8(%ebp),%eax
 8049f66:	c7 40 04 00 00 00 00 	movl   $0x0,0x4(%eax)
 8049f6d:	8b 45 08             	mov    0x8(%ebp),%eax
 8049f70:	8d 50 0c             	lea    0xc(%eax),%edx
 8049f73:	8b 45 08             	mov    0x8(%ebp),%eax
 8049f76:	89 50 08             	mov    %edx,0x8(%eax)
 8049f79:	90                   	nop
 8049f7a:	5d                   	pop    %ebp
 8049f7b:	c3                   	ret    

08049f7c <rio_read>:
 8049f7c:	55                   	push   %ebp
 8049f7d:	89 e5                	mov    %esp,%ebp
 8049f7f:	83 ec 18             	sub    $0x18,%esp
 8049f82:	eb 5f                	jmp    8049fe3 <rio_read+0x67>
 8049f84:	8b 45 08             	mov    0x8(%ebp),%eax
 8049f87:	8d 50 0c             	lea    0xc(%eax),%edx
 8049f8a:	8b 45 08             	mov    0x8(%ebp),%eax
 8049f8d:	8b 00                	mov    (%eax),%eax
 8049f8f:	83 ec 04             	sub    $0x4,%esp
 8049f92:	68 00 20 00 00       	push   $0x2000
 8049f97:	52                   	push   %edx
 8049f98:	50                   	push   %eax
 8049f99:	e8 a2 f0 ff ff       	call   8049040 <read@plt>
 8049f9e:	83 c4 10             	add    $0x10,%esp
 8049fa1:	89 c2                	mov    %eax,%edx
 8049fa3:	8b 45 08             	mov    0x8(%ebp),%eax
 8049fa6:	89 50 04             	mov    %edx,0x4(%eax)
 8049fa9:	8b 45 08             	mov    0x8(%ebp),%eax
 8049fac:	8b 40 04             	mov    0x4(%eax),%eax
 8049faf:	85 c0                	test   %eax,%eax
 8049fb1:	79 13                	jns    8049fc6 <rio_read+0x4a>
 8049fb3:	e8 18 f2 ff ff       	call   80491d0 <__errno_location@plt>
 8049fb8:	8b 00                	mov    (%eax),%eax
 8049fba:	83 f8 04             	cmp    $0x4,%eax
 8049fbd:	74 24                	je     8049fe3 <rio_read+0x67>
 8049fbf:	b8 ff ff ff ff       	mov    $0xffffffff,%eax
 8049fc4:	eb 7f                	jmp    804a045 <rio_read+0xc9>
 8049fc6:	8b 45 08             	mov    0x8(%ebp),%eax
 8049fc9:	8b 40 04             	mov    0x4(%eax),%eax
 8049fcc:	85 c0                	test   %eax,%eax
 8049fce:	75 07                	jne    8049fd7 <rio_read+0x5b>
 8049fd0:	b8 00 00 00 00       	mov    $0x0,%eax
 8049fd5:	eb 6e                	jmp    804a045 <rio_read+0xc9>
 8049fd7:	8b 45 08             	mov    0x8(%ebp),%eax
 8049fda:	8d 50 0c             	lea    0xc(%eax),%edx
 8049fdd:	8b 45 08             	mov    0x8(%ebp),%eax
 8049fe0:	89 50 08             	mov    %edx,0x8(%eax)
 8049fe3:	8b 45 08             	mov    0x8(%ebp),%eax
 8049fe6:	8b 40 04             	mov    0x4(%eax),%eax
 8049fe9:	85 c0                	test   %eax,%eax
 8049feb:	7e 97                	jle    8049f84 <rio_read+0x8>
 8049fed:	8b 45 10             	mov    0x10(%ebp),%eax
 8049ff0:	89 45 f4             	mov    %eax,-0xc(%ebp)
 8049ff3:	8b 45 08             	mov    0x8(%ebp),%eax
 8049ff6:	8b 40 04             	mov    0x4(%eax),%eax
 8049ff9:	39 45 10             	cmp    %eax,0x10(%ebp)
 8049ffc:	76 09                	jbe    804a007 <rio_read+0x8b>
 8049ffe:	8b 45 08             	mov    0x8(%ebp),%eax
 804a001:	8b 40 04             	mov    0x4(%eax),%eax
 804a004:	89 45 f4             	mov    %eax,-0xc(%ebp)
 804a007:	8b 55 f4             	mov    -0xc(%ebp),%edx
 804a00a:	8b 45 08             	mov    0x8(%ebp),%eax
 804a00d:	8b 40 08             	mov    0x8(%eax),%eax
 804a010:	83 ec 04             	sub    $0x4,%esp
 804a013:	52                   	push   %edx
 804a014:	50                   	push   %eax
 804a015:	ff 75 0c             	pushl  0xc(%ebp)
 804a018:	e8 73 f0 ff ff       	call   8049090 <memcpy@plt>
 804a01d:	83 c4 10             	add    $0x10,%esp
 804a020:	8b 45 08             	mov    0x8(%ebp),%eax
 804a023:	8b 50 08             	mov    0x8(%eax),%edx
 804a026:	8b 45 f4             	mov    -0xc(%ebp),%eax
 804a029:	01 c2                	add    %eax,%edx
 804a02b:	8b 45 08             	mov    0x8(%ebp),%eax
 804a02e:	89 50 08             	mov    %edx,0x8(%eax)
 804a031:	8b 45 08             	mov    0x8(%ebp),%eax
 804a034:	8b 40 04             	mov    0x4(%eax),%eax
 804a037:	2b 45 f4             	sub    -0xc(%ebp),%eax
 804a03a:	89 c2                	mov    %eax,%edx
 804a03c:	8b 45 08             	mov    0x8(%ebp),%eax
 804a03f:	89 50 04             	mov    %edx,0x4(%eax)
 804a042:	8b 45 f4             	mov    -0xc(%ebp),%eax
 804a045:	c9                   	leave  
 804a046:	c3                   	ret    

0804a047 <rio_readlineb>:
 804a047:	55                   	push   %ebp
 804a048:	89 e5                	mov    %esp,%ebp
 804a04a:	83 ec 18             	sub    $0x18,%esp
 804a04d:	8b 45 0c             	mov    0xc(%ebp),%eax
 804a050:	89 45 f0             	mov    %eax,-0x10(%ebp)
 804a053:	c7 45 f4 01 00 00 00 	movl   $0x1,-0xc(%ebp)
 804a05a:	eb 54                	jmp    804a0b0 <rio_readlineb+0x69>
 804a05c:	83 ec 04             	sub    $0x4,%esp
 804a05f:	6a 01                	push   $0x1
 804a061:	8d 45 eb             	lea    -0x15(%ebp),%eax
 804a064:	50                   	push   %eax
 804a065:	ff 75 08             	pushl  0x8(%ebp)
 804a068:	e8 0f ff ff ff       	call   8049f7c <rio_read>
 804a06d:	83 c4 10             	add    $0x10,%esp
 804a070:	89 45 ec             	mov    %eax,-0x14(%ebp)
 804a073:	83 7d ec 01          	cmpl   $0x1,-0x14(%ebp)
 804a077:	75 19                	jne    804a092 <rio_readlineb+0x4b>
 804a079:	8b 45 f0             	mov    -0x10(%ebp),%eax
 804a07c:	8d 50 01             	lea    0x1(%eax),%edx
 804a07f:	89 55 f0             	mov    %edx,-0x10(%ebp)
 804a082:	0f b6 55 eb          	movzbl -0x15(%ebp),%edx
 804a086:	88 10                	mov    %dl,(%eax)
 804a088:	0f b6 45 eb          	movzbl -0x15(%ebp),%eax
 804a08c:	3c 0a                	cmp    $0xa,%al
 804a08e:	75 1c                	jne    804a0ac <rio_readlineb+0x65>
 804a090:	eb 29                	jmp    804a0bb <rio_readlineb+0x74>
 804a092:	83 7d ec 00          	cmpl   $0x0,-0x14(%ebp)
 804a096:	75 0d                	jne    804a0a5 <rio_readlineb+0x5e>
 804a098:	83 7d f4 01          	cmpl   $0x1,-0xc(%ebp)
 804a09c:	75 1c                	jne    804a0ba <rio_readlineb+0x73>
 804a09e:	b8 00 00 00 00       	mov    $0x0,%eax
 804a0a3:	eb 1f                	jmp    804a0c4 <rio_readlineb+0x7d>
 804a0a5:	b8 ff ff ff ff       	mov    $0xffffffff,%eax
 804a0aa:	eb 18                	jmp    804a0c4 <rio_readlineb+0x7d>
 804a0ac:	83 45 f4 01          	addl   $0x1,-0xc(%ebp)
 804a0b0:	8b 45 f4             	mov    -0xc(%ebp),%eax
 804a0b3:	39 45 10             	cmp    %eax,0x10(%ebp)
 804a0b6:	77 a4                	ja     804a05c <rio_readlineb+0x15>
 804a0b8:	eb 01                	jmp    804a0bb <rio_readlineb+0x74>
 804a0ba:	90                   	nop
 804a0bb:	8b 45 f0             	mov    -0x10(%ebp),%eax
 804a0be:	c6 00 00             	movb   $0x0,(%eax)
 804a0c1:	8b 45 f4             	mov    -0xc(%ebp),%eax
 804a0c4:	c9                   	leave  
 804a0c5:	c3                   	ret    

0804a0c6 <rio_writen>:
 804a0c6:	55                   	push   %ebp
 804a0c7:	89 e5                	mov    %esp,%ebp
 804a0c9:	83 ec 18             	sub    $0x18,%esp
 804a0cc:	8b 45 10             	mov    0x10(%ebp),%eax
 804a0cf:	89 45 f4             	mov    %eax,-0xc(%ebp)
 804a0d2:	8b 45 0c             	mov    0xc(%ebp),%eax
 804a0d5:	89 45 ec             	mov    %eax,-0x14(%ebp)
 804a0d8:	eb 45                	jmp    804a11f <rio_writen+0x59>
 804a0da:	83 ec 04             	sub    $0x4,%esp
 804a0dd:	ff 75 f4             	pushl  -0xc(%ebp)
 804a0e0:	ff 75 ec             	pushl  -0x14(%ebp)
 804a0e3:	ff 75 08             	pushl  0x8(%ebp)
 804a0e6:	e8 95 f0 ff ff       	call   8049180 <write@plt>
 804a0eb:	83 c4 10             	add    $0x10,%esp
 804a0ee:	89 45 f0             	mov    %eax,-0x10(%ebp)
 804a0f1:	83 7d f0 00          	cmpl   $0x0,-0x10(%ebp)
 804a0f5:	7f 1c                	jg     804a113 <rio_writen+0x4d>
 804a0f7:	e8 d4 f0 ff ff       	call   80491d0 <__errno_location@plt>
 804a0fc:	8b 00                	mov    (%eax),%eax
 804a0fe:	83 f8 04             	cmp    $0x4,%eax
 804a101:	75 09                	jne    804a10c <rio_writen+0x46>
 804a103:	c7 45 f0 00 00 00 00 	movl   $0x0,-0x10(%ebp)
 804a10a:	eb 07                	jmp    804a113 <rio_writen+0x4d>
 804a10c:	b8 ff ff ff ff       	mov    $0xffffffff,%eax
 804a111:	eb 15                	jmp    804a128 <rio_writen+0x62>
 804a113:	8b 45 f0             	mov    -0x10(%ebp),%eax
 804a116:	29 45 f4             	sub    %eax,-0xc(%ebp)
 804a119:	8b 45 f0             	mov    -0x10(%ebp),%eax
 804a11c:	01 45 ec             	add    %eax,-0x14(%ebp)
 804a11f:	83 7d f4 00          	cmpl   $0x0,-0xc(%ebp)
 804a123:	75 b5                	jne    804a0da <rio_writen+0x14>
 804a125:	8b 45 10             	mov    0x10(%ebp),%eax
 804a128:	c9                   	leave  
 804a129:	c3                   	ret    

0804a12a <urlencode>:
 804a12a:	55                   	push   %ebp
 804a12b:	89 e5                	mov    %esp,%ebp
 804a12d:	83 ec 18             	sub    $0x18,%esp
 804a130:	83 ec 0c             	sub    $0xc,%esp
 804a133:	ff 75 08             	pushl  0x8(%ebp)
 804a136:	e8 25 f0 ff ff       	call   8049160 <strlen@plt>
 804a13b:	83 c4 10             	add    $0x10,%esp
 804a13e:	89 45 f4             	mov    %eax,-0xc(%ebp)
 804a141:	e9 0e 01 00 00       	jmp    804a254 <urlencode+0x12a>
 804a146:	8b 45 08             	mov    0x8(%ebp),%eax
 804a149:	0f b6 00             	movzbl (%eax),%eax
 804a14c:	3c 2a                	cmp    $0x2a,%al
 804a14e:	74 5a                	je     804a1aa <urlencode+0x80>
 804a150:	8b 45 08             	mov    0x8(%ebp),%eax
 804a153:	0f b6 00             	movzbl (%eax),%eax
 804a156:	3c 2d                	cmp    $0x2d,%al
 804a158:	74 50                	je     804a1aa <urlencode+0x80>
 804a15a:	8b 45 08             	mov    0x8(%ebp),%eax
 804a15d:	0f b6 00             	movzbl (%eax),%eax
 804a160:	3c 2e                	cmp    $0x2e,%al
 804a162:	74 46                	je     804a1aa <urlencode+0x80>
 804a164:	8b 45 08             	mov    0x8(%ebp),%eax
 804a167:	0f b6 00             	movzbl (%eax),%eax
 804a16a:	3c 5f                	cmp    $0x5f,%al
 804a16c:	74 3c                	je     804a1aa <urlencode+0x80>
 804a16e:	8b 45 08             	mov    0x8(%ebp),%eax
 804a171:	0f b6 00             	movzbl (%eax),%eax
 804a174:	3c 2f                	cmp    $0x2f,%al
 804a176:	76 0a                	jbe    804a182 <urlencode+0x58>
 804a178:	8b 45 08             	mov    0x8(%ebp),%eax
 804a17b:	0f b6 00             	movzbl (%eax),%eax
 804a17e:	3c 39                	cmp    $0x39,%al
 804a180:	76 28                	jbe    804a1aa <urlencode+0x80>
 804a182:	8b 45 08             	mov    0x8(%ebp),%eax
 804a185:	0f b6 00             	movzbl (%eax),%eax
 804a188:	3c 40                	cmp    $0x40,%al
 804a18a:	76 0a                	jbe    804a196 <urlencode+0x6c>
 804a18c:	8b 45 08             	mov    0x8(%ebp),%eax
 804a18f:	0f b6 00             	movzbl (%eax),%eax
 804a192:	3c 5a                	cmp    $0x5a,%al
 804a194:	76 14                	jbe    804a1aa <urlencode+0x80>
 804a196:	8b 45 08             	mov    0x8(%ebp),%eax
 804a199:	0f b6 00             	movzbl (%eax),%eax
 804a19c:	3c 60                	cmp    $0x60,%al
 804a19e:	76 20                	jbe    804a1c0 <urlencode+0x96>
 804a1a0:	8b 45 08             	mov    0x8(%ebp),%eax
 804a1a3:	0f b6 00             	movzbl (%eax),%eax
 804a1a6:	3c 7a                	cmp    $0x7a,%al
 804a1a8:	77 16                	ja     804a1c0 <urlencode+0x96>
 804a1aa:	8b 45 0c             	mov    0xc(%ebp),%eax
 804a1ad:	8d 50 01             	lea    0x1(%eax),%edx
 804a1b0:	89 55 0c             	mov    %edx,0xc(%ebp)
 804a1b3:	8b 55 08             	mov    0x8(%ebp),%edx
 804a1b6:	0f b6 12             	movzbl (%edx),%edx
 804a1b9:	88 10                	mov    %dl,(%eax)
 804a1bb:	e9 90 00 00 00       	jmp    804a250 <urlencode+0x126>
 804a1c0:	8b 45 08             	mov    0x8(%ebp),%eax
 804a1c3:	0f b6 00             	movzbl (%eax),%eax
 804a1c6:	3c 20                	cmp    $0x20,%al
 804a1c8:	75 0e                	jne    804a1d8 <urlencode+0xae>
 804a1ca:	8b 45 0c             	mov    0xc(%ebp),%eax
 804a1cd:	8d 50 01             	lea    0x1(%eax),%edx
 804a1d0:	89 55 0c             	mov    %edx,0xc(%ebp)
 804a1d3:	c6 00 2b             	movb   $0x2b,(%eax)
 804a1d6:	eb 78                	jmp    804a250 <urlencode+0x126>
 804a1d8:	8b 45 08             	mov    0x8(%ebp),%eax
 804a1db:	0f b6 00             	movzbl (%eax),%eax
 804a1de:	3c 1f                	cmp    $0x1f,%al
 804a1e0:	76 0a                	jbe    804a1ec <urlencode+0xc2>
 804a1e2:	8b 45 08             	mov    0x8(%ebp),%eax
 804a1e5:	0f b6 00             	movzbl (%eax),%eax
 804a1e8:	84 c0                	test   %al,%al
 804a1ea:	79 0a                	jns    804a1f6 <urlencode+0xcc>
 804a1ec:	8b 45 08             	mov    0x8(%ebp),%eax
 804a1ef:	0f b6 00             	movzbl (%eax),%eax
 804a1f2:	3c 09                	cmp    $0x9,%al
 804a1f4:	75 53                	jne    804a249 <urlencode+0x11f>
 804a1f6:	8b 45 08             	mov    0x8(%ebp),%eax
 804a1f9:	0f b6 00             	movzbl (%eax),%eax
 804a1fc:	0f b6 c0             	movzbl %al,%eax
 804a1ff:	83 ec 04             	sub    $0x4,%esp
 804a202:	50                   	push   %eax
 804a203:	68 f0 b5 04 08       	push   $0x804b5f0
 804a208:	8d 45 ec             	lea    -0x14(%ebp),%eax
 804a20b:	50                   	push   %eax
 804a20c:	e8 ef ef ff ff       	call   8049200 <sprintf@plt>
 804a211:	83 c4 10             	add    $0x10,%esp
 804a214:	0f b6 4d ec          	movzbl -0x14(%ebp),%ecx
 804a218:	8b 45 0c             	mov    0xc(%ebp),%eax
 804a21b:	8d 50 01             	lea    0x1(%eax),%edx
 804a21e:	89 55 0c             	mov    %edx,0xc(%ebp)
 804a221:	89 ca                	mov    %ecx,%edx
 804a223:	88 10                	mov    %dl,(%eax)
 804a225:	0f b6 4d ed          	movzbl -0x13(%ebp),%ecx
 804a229:	8b 45 0c             	mov    0xc(%ebp),%eax
 804a22c:	8d 50 01             	lea    0x1(%eax),%edx
 804a22f:	89 55 0c             	mov    %edx,0xc(%ebp)
 804a232:	89 ca                	mov    %ecx,%edx
 804a234:	88 10                	mov    %dl,(%eax)
 804a236:	0f b6 4d ee          	movzbl -0x12(%ebp),%ecx
 804a23a:	8b 45 0c             	mov    0xc(%ebp),%eax
 804a23d:	8d 50 01             	lea    0x1(%eax),%edx
 804a240:	89 55 0c             	mov    %edx,0xc(%ebp)
 804a243:	89 ca                	mov    %ecx,%edx
 804a245:	88 10                	mov    %dl,(%eax)
 804a247:	eb 07                	jmp    804a250 <urlencode+0x126>
 804a249:	b8 ff ff ff ff       	mov    $0xffffffff,%eax
 804a24e:	eb 1a                	jmp    804a26a <urlencode+0x140>
 804a250:	83 45 08 01          	addl   $0x1,0x8(%ebp)
 804a254:	8b 45 f4             	mov    -0xc(%ebp),%eax
 804a257:	8d 50 ff             	lea    -0x1(%eax),%edx
 804a25a:	89 55 f4             	mov    %edx,-0xc(%ebp)
 804a25d:	85 c0                	test   %eax,%eax
 804a25f:	0f 85 e1 fe ff ff    	jne    804a146 <urlencode+0x1c>
 804a265:	b8 00 00 00 00       	mov    $0x0,%eax
 804a26a:	c9                   	leave  
 804a26b:	c3                   	ret    

0804a26c <submitr>:
 804a26c:	55                   	push   %ebp
 804a26d:	89 e5                	mov    %esp,%ebp
 804a26f:	57                   	push   %edi
 804a270:	56                   	push   %esi
 804a271:	53                   	push   %ebx
 804a272:	81 ec 3c a0 00 00    	sub    $0xa03c,%esp
 804a278:	c7 85 b8 7f ff ff 00 	movl   $0x0,-0x8048(%ebp)
 804a27f:	00 00 00 
 804a282:	83 ec 04             	sub    $0x4,%esp
 804a285:	6a 00                	push   $0x0
 804a287:	6a 01                	push   $0x1
 804a289:	6a 02                	push   $0x2
 804a28b:	e8 80 ef ff ff       	call   8049210 <socket@plt>
 804a290:	83 c4 10             	add    $0x10,%esp
 804a293:	89 45 e4             	mov    %eax,-0x1c(%ebp)
 804a296:	83 7d e4 00          	cmpl   $0x0,-0x1c(%ebp)
 804a29a:	79 51                	jns    804a2ed <submitr+0x81>
 804a29c:	8b 45 20             	mov    0x20(%ebp),%eax
 804a29f:	c7 00 45 72 72 6f    	movl   $0x6f727245,(%eax)
 804a2a5:	c7 40 04 72 3a 20 43 	movl   $0x43203a72,0x4(%eax)
 804a2ac:	c7 40 08 6c 69 65 6e 	movl   $0x6e65696c,0x8(%eax)
 804a2b3:	c7 40 0c 74 20 75 6e 	movl   $0x6e752074,0xc(%eax)
 804a2ba:	c7 40 10 61 62 6c 65 	movl   $0x656c6261,0x10(%eax)
 804a2c1:	c7 40 14 20 74 6f 20 	movl   $0x206f7420,0x14(%eax)
 804a2c8:	c7 40 18 63 72 65 61 	movl   $0x61657263,0x18(%eax)
 804a2cf:	c7 40 1c 74 65 20 73 	movl   $0x73206574,0x1c(%eax)
 804a2d6:	c7 40 20 6f 63 6b 65 	movl   $0x656b636f,0x20(%eax)
 804a2dd:	66 c7 40 24 74 00    	movw   $0x74,0x24(%eax)
 804a2e3:	b8 ff ff ff ff       	mov    $0xffffffff,%eax
 804a2e8:	e9 b0 05 00 00       	jmp    804a89d <submitr+0x631>
 804a2ed:	83 ec 0c             	sub    $0xc,%esp
 804a2f0:	ff 75 08             	pushl  0x8(%ebp)
 804a2f3:	e8 48 ef ff ff       	call   8049240 <gethostbyname@plt>
 804a2f8:	83 c4 10             	add    $0x10,%esp
 804a2fb:	89 45 e0             	mov    %eax,-0x20(%ebp)
 804a2fe:	83 7d e0 00          	cmpl   $0x0,-0x20(%ebp)
 804a302:	75 2e                	jne    804a332 <submitr+0xc6>
 804a304:	83 ec 04             	sub    $0x4,%esp
 804a307:	ff 75 08             	pushl  0x8(%ebp)
 804a30a:	68 f8 b5 04 08       	push   $0x804b5f8
 804a30f:	ff 75 20             	pushl  0x20(%ebp)
 804a312:	e8 e9 ee ff ff       	call   8049200 <sprintf@plt>
 804a317:	83 c4 10             	add    $0x10,%esp
 804a31a:	83 ec 0c             	sub    $0xc,%esp
 804a31d:	ff 75 e4             	pushl  -0x1c(%ebp)
 804a320:	e8 3b ef ff ff       	call   8049260 <close@plt>
 804a325:	83 c4 10             	add    $0x10,%esp
 804a328:	b8 ff ff ff ff       	mov    $0xffffffff,%eax
 804a32d:	e9 6b 05 00 00       	jmp    804a89d <submitr+0x631>
 804a332:	8d 45 c8             	lea    -0x38(%ebp),%eax
 804a335:	c7 00 00 00 00 00    	movl   $0x0,(%eax)
 804a33b:	c7 40 04 00 00 00 00 	movl   $0x0,0x4(%eax)
 804a342:	c7 40 08 00 00 00 00 	movl   $0x0,0x8(%eax)
 804a349:	c7 40 0c 00 00 00 00 	movl   $0x0,0xc(%eax)
 804a350:	66 c7 45 c8 02 00    	movw   $0x2,-0x38(%ebp)
 804a356:	8b 45 e0             	mov    -0x20(%ebp),%eax
 804a359:	8b 40 0c             	mov    0xc(%eax),%eax
 804a35c:	89 c2                	mov    %eax,%edx
 804a35e:	8b 45 e0             	mov    -0x20(%ebp),%eax
 804a361:	8b 40 10             	mov    0x10(%eax),%eax
 804a364:	8b 00                	mov    (%eax),%eax
 804a366:	83 ec 04             	sub    $0x4,%esp
 804a369:	52                   	push   %edx
 804a36a:	50                   	push   %eax
 804a36b:	8d 45 c8             	lea    -0x38(%ebp),%eax
 804a36e:	83 c0 04             	add    $0x4,%eax
 804a371:	50                   	push   %eax
 804a372:	e8 f9 ec ff ff       	call   8049070 <memmove@plt>
 804a377:	83 c4 10             	add    $0x10,%esp
 804a37a:	8b 45 0c             	mov    0xc(%ebp),%eax
 804a37d:	0f b7 c0             	movzwl %ax,%eax
 804a380:	83 ec 0c             	sub    $0xc,%esp
 804a383:	50                   	push   %eax
 804a384:	e8 47 ed ff ff       	call   80490d0 <htons@plt>
 804a389:	83 c4 10             	add    $0x10,%esp
 804a38c:	66 89 45 ca          	mov    %ax,-0x36(%ebp)
 804a390:	83 ec 04             	sub    $0x4,%esp
 804a393:	6a 10                	push   $0x10
 804a395:	8d 45 c8             	lea    -0x38(%ebp),%eax
 804a398:	50                   	push   %eax
 804a399:	ff 75 e4             	pushl  -0x1c(%ebp)
 804a39c:	e8 af ee ff ff       	call   8049250 <connect@plt>
 804a3a1:	83 c4 10             	add    $0x10,%esp
 804a3a4:	85 c0                	test   %eax,%eax
 804a3a6:	79 2e                	jns    804a3d6 <submitr+0x16a>
 804a3a8:	83 ec 04             	sub    $0x4,%esp
 804a3ab:	ff 75 08             	pushl  0x8(%ebp)
 804a3ae:	68 24 b6 04 08       	push   $0x804b624
 804a3b3:	ff 75 20             	pushl  0x20(%ebp)
 804a3b6:	e8 45 ee ff ff       	call   8049200 <sprintf@plt>
 804a3bb:	83 c4 10             	add    $0x10,%esp
 804a3be:	83 ec 0c             	sub    $0xc,%esp
 804a3c1:	ff 75 e4             	pushl  -0x1c(%ebp)
 804a3c4:	e8 97 ee ff ff       	call   8049260 <close@plt>
 804a3c9:	83 c4 10             	add    $0x10,%esp
 804a3cc:	b8 ff ff ff ff       	mov    $0xffffffff,%eax
 804a3d1:	e9 c7 04 00 00       	jmp    804a89d <submitr+0x631>
 804a3d6:	83 ec 0c             	sub    $0xc,%esp
 804a3d9:	ff 75 1c             	pushl  0x1c(%ebp)
 804a3dc:	e8 7f ed ff ff       	call   8049160 <strlen@plt>
 804a3e1:	83 c4 10             	add    $0x10,%esp
 804a3e4:	89 45 dc             	mov    %eax,-0x24(%ebp)
 804a3e7:	83 ec 0c             	sub    $0xc,%esp
 804a3ea:	ff 75 10             	pushl  0x10(%ebp)
 804a3ed:	e8 6e ed ff ff       	call   8049160 <strlen@plt>
 804a3f2:	83 c4 10             	add    $0x10,%esp
 804a3f5:	89 c3                	mov    %eax,%ebx
 804a3f7:	83 ec 0c             	sub    $0xc,%esp
 804a3fa:	ff 75 14             	pushl  0x14(%ebp)
 804a3fd:	e8 5e ed ff ff       	call   8049160 <strlen@plt>
 804a402:	83 c4 10             	add    $0x10,%esp
 804a405:	01 c3                	add    %eax,%ebx
 804a407:	83 ec 0c             	sub    $0xc,%esp
 804a40a:	ff 75 18             	pushl  0x18(%ebp)
 804a40d:	e8 4e ed ff ff       	call   8049160 <strlen@plt>
 804a412:	83 c4 10             	add    $0x10,%esp
 804a415:	8d 0c 03             	lea    (%ebx,%eax,1),%ecx
 804a418:	8b 55 dc             	mov    -0x24(%ebp),%edx
 804a41b:	89 d0                	mov    %edx,%eax
 804a41d:	01 c0                	add    %eax,%eax
 804a41f:	01 d0                	add    %edx,%eax
 804a421:	01 c8                	add    %ecx,%eax
 804a423:	83 e8 80             	sub    $0xffffff80,%eax
 804a426:	89 45 d8             	mov    %eax,-0x28(%ebp)
 804a429:	81 7d d8 00 20 00 00 	cmpl   $0x2000,-0x28(%ebp)
 804a430:	76 7c                	jbe    804a4ae <submitr+0x242>
 804a432:	8b 45 20             	mov    0x20(%ebp),%eax
 804a435:	c7 00 45 72 72 6f    	movl   $0x6f727245,(%eax)
 804a43b:	c7 40 04 72 3a 20 52 	movl   $0x52203a72,0x4(%eax)
 804a442:	c7 40 08 65 73 75 6c 	movl   $0x6c757365,0x8(%eax)
 804a449:	c7 40 0c 74 20 73 74 	movl   $0x74732074,0xc(%eax)
 804a450:	c7 40 10 72 69 6e 67 	movl   $0x676e6972,0x10(%eax)
 804a457:	c7 40 14 20 74 6f 6f 	movl   $0x6f6f7420,0x14(%eax)
 804a45e:	c7 40 18 20 6c 61 72 	movl   $0x72616c20,0x18(%eax)
 804a465:	c7 40 1c 67 65 2e 20 	movl   $0x202e6567,0x1c(%eax)
 804a46c:	c7 40 20 49 6e 63 72 	movl   $0x72636e49,0x20(%eax)
 804a473:	c7 40 24 65 61 73 65 	movl   $0x65736165,0x24(%eax)
 804a47a:	c7 40 28 20 53 55 42 	movl   $0x42555320,0x28(%eax)
 804a481:	c7 40 2c 4d 49 54 52 	movl   $0x5254494d,0x2c(%eax)
 804a488:	c7 40 30 5f 4d 41 58 	movl   $0x58414d5f,0x30(%eax)
 804a48f:	c7 40 34 42 55 46 00 	movl   $0x465542,0x34(%eax)
 804a496:	83 ec 0c             	sub    $0xc,%esp
 804a499:	ff 75 e4             	pushl  -0x1c(%ebp)
 804a49c:	e8 bf ed ff ff       	call   8049260 <close@plt>
 804a4a1:	83 c4 10             	add    $0x10,%esp
 804a4a4:	b8 ff ff ff ff       	mov    $0xffffffff,%eax
 804a4a9:	e9 ef 03 00 00       	jmp    804a89d <submitr+0x631>
 804a4ae:	8d 85 bc 9f ff ff    	lea    -0x6044(%ebp),%eax
 804a4b4:	89 c3                	mov    %eax,%ebx
 804a4b6:	b8 00 00 00 00       	mov    $0x0,%eax
 804a4bb:	ba 00 08 00 00       	mov    $0x800,%edx
 804a4c0:	89 df                	mov    %ebx,%edi
 804a4c2:	89 d1                	mov    %edx,%ecx
 804a4c4:	f3 ab                	rep stos %eax,%es:(%edi)
 804a4c6:	83 ec 08             	sub    $0x8,%esp
 804a4c9:	8d 85 bc 9f ff ff    	lea    -0x6044(%ebp),%eax
 804a4cf:	50                   	push   %eax
 804a4d0:	ff 75 1c             	pushl  0x1c(%ebp)
 804a4d3:	e8 52 fc ff ff       	call   804a12a <urlencode>
 804a4d8:	83 c4 10             	add    $0x10,%esp
 804a4db:	85 c0                	test   %eax,%eax
 804a4dd:	79 4b                	jns    804a52a <submitr+0x2be>
 804a4df:	8b 45 20             	mov    0x20(%ebp),%eax
 804a4e2:	bb 4c b6 04 08       	mov    $0x804b64c,%ebx
 804a4e7:	ba 43 00 00 00       	mov    $0x43,%edx
 804a4ec:	8b 0b                	mov    (%ebx),%ecx
 804a4ee:	89 08                	mov    %ecx,(%eax)
 804a4f0:	8b 4c 13 fc          	mov    -0x4(%ebx,%edx,1),%ecx
 804a4f4:	89 4c 10 fc          	mov    %ecx,-0x4(%eax,%edx,1)
 804a4f8:	8d 78 04             	lea    0x4(%eax),%edi
 804a4fb:	83 e7 fc             	and    $0xfffffffc,%edi
 804a4fe:	29 f8                	sub    %edi,%eax
 804a500:	29 c3                	sub    %eax,%ebx
 804a502:	01 c2                	add    %eax,%edx
 804a504:	83 e2 fc             	and    $0xfffffffc,%edx
 804a507:	89 d0                	mov    %edx,%eax
 804a509:	c1 e8 02             	shr    $0x2,%eax
 804a50c:	89 de                	mov    %ebx,%esi
 804a50e:	89 c1                	mov    %eax,%ecx
 804a510:	f3 a5                	rep movsl %ds:(%esi),%es:(%edi)
 804a512:	83 ec 0c             	sub    $0xc,%esp
 804a515:	ff 75 e4             	pushl  -0x1c(%ebp)
 804a518:	e8 43 ed ff ff       	call   8049260 <close@plt>
 804a51d:	83 c4 10             	add    $0x10,%esp
 804a520:	b8 ff ff ff ff       	mov    $0xffffffff,%eax
 804a525:	e9 73 03 00 00       	jmp    804a89d <submitr+0x631>
 804a52a:	83 ec 08             	sub    $0x8,%esp
 804a52d:	8d 85 bc 9f ff ff    	lea    -0x6044(%ebp),%eax
 804a533:	50                   	push   %eax
 804a534:	ff 75 18             	pushl  0x18(%ebp)
 804a537:	ff 75 14             	pushl  0x14(%ebp)
 804a53a:	ff 75 10             	pushl  0x10(%ebp)
 804a53d:	68 90 b6 04 08       	push   $0x804b690
 804a542:	8d 85 bc bf ff ff    	lea    -0x4044(%ebp),%eax
 804a548:	50                   	push   %eax
 804a549:	e8 b2 ec ff ff       	call   8049200 <sprintf@plt>
 804a54e:	83 c4 20             	add    $0x20,%esp
 804a551:	83 ec 0c             	sub    $0xc,%esp
 804a554:	8d 85 bc bf ff ff    	lea    -0x4044(%ebp),%eax
 804a55a:	50                   	push   %eax
 804a55b:	e8 00 ec ff ff       	call   8049160 <strlen@plt>
 804a560:	83 c4 10             	add    $0x10,%esp
 804a563:	83 ec 04             	sub    $0x4,%esp
 804a566:	50                   	push   %eax
 804a567:	8d 85 bc bf ff ff    	lea    -0x4044(%ebp),%eax
 804a56d:	50                   	push   %eax
 804a56e:	ff 75 e4             	pushl  -0x1c(%ebp)
 804a571:	e8 50 fb ff ff       	call   804a0c6 <rio_writen>
 804a576:	83 c4 10             	add    $0x10,%esp
 804a579:	85 c0                	test   %eax,%eax
 804a57b:	79 67                	jns    804a5e4 <submitr+0x378>
 804a57d:	8b 45 20             	mov    0x20(%ebp),%eax
 804a580:	c7 00 45 72 72 6f    	movl   $0x6f727245,(%eax)
 804a586:	c7 40 04 72 3a 20 43 	movl   $0x43203a72,0x4(%eax)
 804a58d:	c7 40 08 6c 69 65 6e 	movl   $0x6e65696c,0x8(%eax)
 804a594:	c7 40 0c 74 20 75 6e 	movl   $0x6e752074,0xc(%eax)
 804a59b:	c7 40 10 61 62 6c 65 	movl   $0x656c6261,0x10(%eax)
 804a5a2:	c7 40 14 20 74 6f 20 	movl   $0x206f7420,0x14(%eax)
 804a5a9:	c7 40 18 77 72 69 74 	movl   $0x74697277,0x18(%eax)
 804a5b0:	c7 40 1c 65 20 74 6f 	movl   $0x6f742065,0x1c(%eax)
 804a5b7:	c7 40 20 20 74 68 65 	movl   $0x65687420,0x20(%eax)
 804a5be:	c7 40 24 20 73 65 72 	movl   $0x72657320,0x24(%eax)
 804a5c5:	c7 40 28 76 65 72 00 	movl   $0x726576,0x28(%eax)
 804a5cc:	83 ec 0c             	sub    $0xc,%esp
 804a5cf:	ff 75 e4             	pushl  -0x1c(%ebp)
 804a5d2:	e8 89 ec ff ff       	call   8049260 <close@plt>
 804a5d7:	83 c4 10             	add    $0x10,%esp
 804a5da:	b8 ff ff ff ff       	mov    $0xffffffff,%eax
 804a5df:	e9 b9 02 00 00       	jmp    804a89d <submitr+0x631>
 804a5e4:	83 ec 08             	sub    $0x8,%esp
 804a5e7:	ff 75 e4             	pushl  -0x1c(%ebp)
 804a5ea:	8d 85 bc df ff ff    	lea    -0x2044(%ebp),%eax
 804a5f0:	50                   	push   %eax
 804a5f1:	e8 62 f9 ff ff       	call   8049f58 <rio_readinitb>
 804a5f6:	83 c4 10             	add    $0x10,%esp
 804a5f9:	83 ec 04             	sub    $0x4,%esp
 804a5fc:	68 00 20 00 00       	push   $0x2000
 804a601:	8d 85 bc bf ff ff    	lea    -0x4044(%ebp),%eax
 804a607:	50                   	push   %eax
 804a608:	8d 85 bc df ff ff    	lea    -0x2044(%ebp),%eax
 804a60e:	50                   	push   %eax
 804a60f:	e8 33 fa ff ff       	call   804a047 <rio_readlineb>
 804a614:	83 c4 10             	add    $0x10,%esp
 804a617:	85 c0                	test   %eax,%eax
 804a619:	7f 7b                	jg     804a696 <submitr+0x42a>
 804a61b:	8b 45 20             	mov    0x20(%ebp),%eax
 804a61e:	c7 00 45 72 72 6f    	movl   $0x6f727245,(%eax)
 804a624:	c7 40 04 72 3a 20 43 	movl   $0x43203a72,0x4(%eax)
 804a62b:	c7 40 08 6c 69 65 6e 	movl   $0x6e65696c,0x8(%eax)
 804a632:	c7 40 0c 74 20 75 6e 	movl   $0x6e752074,0xc(%eax)
 804a639:	c7 40 10 61 62 6c 65 	movl   $0x656c6261,0x10(%eax)
 804a640:	c7 40 14 20 74 6f 20 	movl   $0x206f7420,0x14(%eax)
 804a647:	c7 40 18 72 65 61 64 	movl   $0x64616572,0x18(%eax)
 804a64e:	c7 40 1c 20 66 69 72 	movl   $0x72696620,0x1c(%eax)
 804a655:	c7 40 20 73 74 20 68 	movl   $0x68207473,0x20(%eax)
 804a65c:	c7 40 24 65 61 64 65 	movl   $0x65646165,0x24(%eax)
 804a663:	c7 40 28 72 20 66 72 	movl   $0x72662072,0x28(%eax)
 804a66a:	c7 40 2c 6f 6d 20 73 	movl   $0x73206d6f,0x2c(%eax)
 804a671:	c7 40 30 65 72 76 65 	movl   $0x65767265,0x30(%eax)
 804a678:	66 c7 40 34 72 00    	movw   $0x72,0x34(%eax)
 804a67e:	83 ec 0c             	sub    $0xc,%esp
 804a681:	ff 75 e4             	pushl  -0x1c(%ebp)
 804a684:	e8 d7 eb ff ff       	call   8049260 <close@plt>
 804a689:	83 c4 10             	add    $0x10,%esp
 804a68c:	b8 ff ff ff ff       	mov    $0xffffffff,%eax
 804a691:	e9 07 02 00 00       	jmp    804a89d <submitr+0x631>
 804a696:	83 ec 0c             	sub    $0xc,%esp
 804a699:	8d 85 b8 5f ff ff    	lea    -0xa048(%ebp),%eax
 804a69f:	50                   	push   %eax
 804a6a0:	8d 85 b8 7f ff ff    	lea    -0x8048(%ebp),%eax
 804a6a6:	50                   	push   %eax
 804a6a7:	8d 85 bc 7f ff ff    	lea    -0x8044(%ebp),%eax
 804a6ad:	50                   	push   %eax
 804a6ae:	68 da b6 04 08       	push   $0x804b6da
 804a6b3:	8d 85 bc bf ff ff    	lea    -0x4044(%ebp),%eax
 804a6b9:	50                   	push   %eax
 804a6ba:	e8 f1 ea ff ff       	call   80491b0 <__isoc99_sscanf@plt>
 804a6bf:	83 c4 20             	add    $0x20,%esp
 804a6c2:	8b 85 b8 7f ff ff    	mov    -0x8048(%ebp),%eax
 804a6c8:	3d c8 00 00 00       	cmp    $0xc8,%eax
 804a6cd:	0f 84 ca 00 00 00    	je     804a79d <submitr+0x531>
 804a6d3:	8b 85 b8 7f ff ff    	mov    -0x8048(%ebp),%eax
 804a6d9:	8d 95 b8 5f ff ff    	lea    -0xa048(%ebp),%edx
 804a6df:	52                   	push   %edx
 804a6e0:	50                   	push   %eax
 804a6e1:	68 ec b6 04 08       	push   $0x804b6ec
 804a6e6:	ff 75 20             	pushl  0x20(%ebp)
 804a6e9:	e8 12 eb ff ff       	call   8049200 <sprintf@plt>
 804a6ee:	83 c4 10             	add    $0x10,%esp
 804a6f1:	83 ec 0c             	sub    $0xc,%esp
 804a6f4:	ff 75 e4             	pushl  -0x1c(%ebp)
 804a6f7:	e8 64 eb ff ff       	call   8049260 <close@plt>
 804a6fc:	83 c4 10             	add    $0x10,%esp
 804a6ff:	b8 ff ff ff ff       	mov    $0xffffffff,%eax
 804a704:	e9 94 01 00 00       	jmp    804a89d <submitr+0x631>
 804a709:	83 ec 04             	sub    $0x4,%esp
 804a70c:	68 00 20 00 00       	push   $0x2000
 804a711:	8d 85 bc bf ff ff    	lea    -0x4044(%ebp),%eax
 804a717:	50                   	push   %eax
 804a718:	8d 85 bc df ff ff    	lea    -0x2044(%ebp),%eax
 804a71e:	50                   	push   %eax
 804a71f:	e8 23 f9 ff ff       	call   804a047 <rio_readlineb>
 804a724:	83 c4 10             	add    $0x10,%esp
 804a727:	85 c0                	test   %eax,%eax
 804a729:	7f 72                	jg     804a79d <submitr+0x531>
 804a72b:	8b 45 20             	mov    0x20(%ebp),%eax
 804a72e:	c7 00 45 72 72 6f    	movl   $0x6f727245,(%eax)
 804a734:	c7 40 04 72 3a 20 43 	movl   $0x43203a72,0x4(%eax)
 804a73b:	c7 40 08 6c 69 65 6e 	movl   $0x6e65696c,0x8(%eax)
 804a742:	c7 40 0c 74 20 75 6e 	movl   $0x6e752074,0xc(%eax)
 804a749:	c7 40 10 61 62 6c 65 	movl   $0x656c6261,0x10(%eax)
 804a750:	c7 40 14 20 74 6f 20 	movl   $0x206f7420,0x14(%eax)
 804a757:	c7 40 18 72 65 61 64 	movl   $0x64616572,0x18(%eax)
 804a75e:	c7 40 1c 20 68 65 61 	movl   $0x61656820,0x1c(%eax)
 804a765:	c7 40 20 64 65 72 73 	movl   $0x73726564,0x20(%eax)
 804a76c:	c7 40 24 20 66 72 6f 	movl   $0x6f726620,0x24(%eax)
 804a773:	c7 40 28 6d 20 73 65 	movl   $0x6573206d,0x28(%eax)
 804a77a:	c7 40 2c 72 76 65 72 	movl   $0x72657672,0x2c(%eax)
 804a781:	c6 40 30 00          	movb   $0x0,0x30(%eax)
 804a785:	83 ec 0c             	sub    $0xc,%esp
 804a788:	ff 75 e4             	pushl  -0x1c(%ebp)
 804a78b:	e8 d0 ea ff ff       	call   8049260 <close@plt>
 804a790:	83 c4 10             	add    $0x10,%esp
 804a793:	b8 ff ff ff ff       	mov    $0xffffffff,%eax
 804a798:	e9 00 01 00 00       	jmp    804a89d <submitr+0x631>
 804a79d:	83 ec 08             	sub    $0x8,%esp
 804a7a0:	68 19 b7 04 08       	push   $0x804b719
 804a7a5:	8d 85 bc bf ff ff    	lea    -0x4044(%ebp),%eax
 804a7ab:	50                   	push   %eax
 804a7ac:	e8 7f e8 ff ff       	call   8049030 <strcmp@plt>
 804a7b1:	83 c4 10             	add    $0x10,%esp
 804a7b4:	85 c0                	test   %eax,%eax
 804a7b6:	0f 85 4d ff ff ff    	jne    804a709 <submitr+0x49d>
 804a7bc:	83 ec 04             	sub    $0x4,%esp
 804a7bf:	68 00 20 00 00       	push   $0x2000
 804a7c4:	8d 85 bc bf ff ff    	lea    -0x4044(%ebp),%eax
 804a7ca:	50                   	push   %eax
 804a7cb:	8d 85 bc df ff ff    	lea    -0x2044(%ebp),%eax
 804a7d1:	50                   	push   %eax
 804a7d2:	e8 70 f8 ff ff       	call   804a047 <rio_readlineb>
 804a7d7:	83 c4 10             	add    $0x10,%esp
 804a7da:	85 c0                	test   %eax,%eax
 804a7dc:	7f 79                	jg     804a857 <submitr+0x5eb>
 804a7de:	8b 45 20             	mov    0x20(%ebp),%eax
 804a7e1:	c7 00 45 72 72 6f    	movl   $0x6f727245,(%eax)
 804a7e7:	c7 40 04 72 3a 20 43 	movl   $0x43203a72,0x4(%eax)
 804a7ee:	c7 40 08 6c 69 65 6e 	movl   $0x6e65696c,0x8(%eax)
 804a7f5:	c7 40 0c 74 20 75 6e 	movl   $0x6e752074,0xc(%eax)
 804a7fc:	c7 40 10 61 62 6c 65 	movl   $0x656c6261,0x10(%eax)
 804a803:	c7 40 14 20 74 6f 20 	movl   $0x206f7420,0x14(%eax)
 804a80a:	c7 40 18 72 65 61 64 	movl   $0x64616572,0x18(%eax)
 804a811:	c7 40 1c 20 73 74 61 	movl   $0x61747320,0x1c(%eax)
 804a818:	c7 40 20 74 75 73 20 	movl   $0x20737574,0x20(%eax)
 804a81f:	c7 40 24 6d 65 73 73 	movl   $0x7373656d,0x24(%eax)
 804a826:	c7 40 28 61 67 65 20 	movl   $0x20656761,0x28(%eax)
 804a82d:	c7 40 2c 66 72 6f 6d 	movl   $0x6d6f7266,0x2c(%eax)
 804a834:	c7 40 30 20 73 65 72 	movl   $0x72657320,0x30(%eax)
 804a83b:	c7 40 34 76 65 72 00 	movl   $0x726576,0x34(%eax)
 804a842:	83 ec 0c             	sub    $0xc,%esp
 804a845:	ff 75 e4             	pushl  -0x1c(%ebp)
 804a848:	e8 13 ea ff ff       	call   8049260 <close@plt>
 804a84d:	83 c4 10             	add    $0x10,%esp
 804a850:	b8 ff ff ff ff       	mov    $0xffffffff,%eax
 804a855:	eb 46                	jmp    804a89d <submitr+0x631>
 804a857:	83 ec 08             	sub    $0x8,%esp
 804a85a:	8d 85 bc bf ff ff    	lea    -0x4044(%ebp),%eax
 804a860:	50                   	push   %eax
 804a861:	ff 75 20             	pushl  0x20(%ebp)
 804a864:	e8 87 e8 ff ff       	call   80490f0 <strcpy@plt>
 804a869:	83 c4 10             	add    $0x10,%esp
 804a86c:	83 ec 0c             	sub    $0xc,%esp
 804a86f:	ff 75 e4             	pushl  -0x1c(%ebp)
 804a872:	e8 e9 e9 ff ff       	call   8049260 <close@plt>
 804a877:	83 c4 10             	add    $0x10,%esp
 804a87a:	83 ec 08             	sub    $0x8,%esp
 804a87d:	68 1c b7 04 08       	push   $0x804b71c
 804a882:	ff 75 20             	pushl  0x20(%ebp)
 804a885:	e8 a6 e7 ff ff       	call   8049030 <strcmp@plt>
 804a88a:	83 c4 10             	add    $0x10,%esp
 804a88d:	85 c0                	test   %eax,%eax
 804a88f:	75 07                	jne    804a898 <submitr+0x62c>
 804a891:	b8 00 00 00 00       	mov    $0x0,%eax
 804a896:	eb 05                	jmp    804a89d <submitr+0x631>
 804a898:	b8 ff ff ff ff       	mov    $0xffffffff,%eax
 804a89d:	8d 65 f4             	lea    -0xc(%ebp),%esp
 804a8a0:	5b                   	pop    %ebx
 804a8a1:	5e                   	pop    %esi
 804a8a2:	5f                   	pop    %edi
 804a8a3:	5d                   	pop    %ebp
 804a8a4:	c3                   	ret    

0804a8a5 <init_timeout>:
 804a8a5:	55                   	push   %ebp
 804a8a6:	89 e5                	mov    %esp,%ebp
 804a8a8:	83 ec 08             	sub    $0x8,%esp
 804a8ab:	83 7d 08 00          	cmpl   $0x0,0x8(%ebp)
 804a8af:	74 30                	je     804a8e1 <init_timeout+0x3c>
 804a8b1:	83 7d 08 00          	cmpl   $0x0,0x8(%ebp)
 804a8b5:	79 07                	jns    804a8be <init_timeout+0x19>
 804a8b7:	c7 45 08 02 00 00 00 	movl   $0x2,0x8(%ebp)
 804a8be:	83 ec 08             	sub    $0x8,%esp
 804a8c1:	68 36 9f 04 08       	push   $0x8049f36
 804a8c6:	6a 0e                	push   $0xe
 804a8c8:	e8 d3 e7 ff ff       	call   80490a0 <signal@plt>
 804a8cd:	83 c4 10             	add    $0x10,%esp
 804a8d0:	8b 45 08             	mov    0x8(%ebp),%eax
 804a8d3:	83 ec 0c             	sub    $0xc,%esp
 804a8d6:	50                   	push   %eax
 804a8d7:	e8 e4 e7 ff ff       	call   80490c0 <alarm@plt>
 804a8dc:	83 c4 10             	add    $0x10,%esp
 804a8df:	eb 01                	jmp    804a8e2 <init_timeout+0x3d>
 804a8e1:	90                   	nop
 804a8e2:	c9                   	leave  
 804a8e3:	c3                   	ret    

0804a8e4 <init_driver>:
 804a8e4:	55                   	push   %ebp
 804a8e5:	89 e5                	mov    %esp,%ebp
 804a8e7:	83 ec 28             	sub    $0x28,%esp
 804a8ea:	c7 45 f4 1f b7 04 08 	movl   $0x804b71f,-0xc(%ebp)
 804a8f1:	c7 45 f0 03 d9 00 00 	movl   $0xd903,-0x10(%ebp)
 804a8f8:	83 ec 08             	sub    $0x8,%esp
 804a8fb:	6a 01                	push   $0x1
 804a8fd:	6a 0d                	push   $0xd
 804a8ff:	e8 9c e7 ff ff       	call   80490a0 <signal@plt>
 804a904:	83 c4 10             	add    $0x10,%esp
 804a907:	83 ec 08             	sub    $0x8,%esp
 804a90a:	6a 01                	push   $0x1
 804a90c:	6a 1d                	push   $0x1d
 804a90e:	e8 8d e7 ff ff       	call   80490a0 <signal@plt>
 804a913:	83 c4 10             	add    $0x10,%esp
 804a916:	83 ec 08             	sub    $0x8,%esp
 804a919:	6a 01                	push   $0x1
 804a91b:	6a 1d                	push   $0x1d
 804a91d:	e8 7e e7 ff ff       	call   80490a0 <signal@plt>
 804a922:	83 c4 10             	add    $0x10,%esp
 804a925:	83 ec 04             	sub    $0x4,%esp
 804a928:	6a 00                	push   $0x0
 804a92a:	6a 01                	push   $0x1
 804a92c:	6a 02                	push   $0x2
 804a92e:	e8 dd e8 ff ff       	call   8049210 <socket@plt>
 804a933:	83 c4 10             	add    $0x10,%esp
 804a936:	89 45 ec             	mov    %eax,-0x14(%ebp)
 804a939:	83 7d ec 00          	cmpl   $0x0,-0x14(%ebp)
 804a93d:	79 51                	jns    804a990 <init_driver+0xac>
 804a93f:	8b 45 08             	mov    0x8(%ebp),%eax
 804a942:	c7 00 45 72 72 6f    	movl   $0x6f727245,(%eax)
 804a948:	c7 40 04 72 3a 20 43 	movl   $0x43203a72,0x4(%eax)
 804a94f:	c7 40 08 6c 69 65 6e 	movl   $0x6e65696c,0x8(%eax)
 804a956:	c7 40 0c 74 20 75 6e 	movl   $0x6e752074,0xc(%eax)
 804a95d:	c7 40 10 61 62 6c 65 	movl   $0x656c6261,0x10(%eax)
 804a964:	c7 40 14 20 74 6f 20 	movl   $0x206f7420,0x14(%eax)
 804a96b:	c7 40 18 63 72 65 61 	movl   $0x61657263,0x18(%eax)
 804a972:	c7 40 1c 74 65 20 73 	movl   $0x73206574,0x1c(%eax)
 804a979:	c7 40 20 6f 63 6b 65 	movl   $0x656b636f,0x20(%eax)
 804a980:	66 c7 40 24 74 00    	movw   $0x74,0x24(%eax)
 804a986:	b8 ff ff ff ff       	mov    $0xffffffff,%eax
 804a98b:	e9 05 01 00 00       	jmp    804aa95 <init_driver+0x1b1>
 804a990:	83 ec 0c             	sub    $0xc,%esp
 804a993:	ff 75 f4             	pushl  -0xc(%ebp)
 804a996:	e8 a5 e8 ff ff       	call   8049240 <gethostbyname@plt>
 804a99b:	83 c4 10             	add    $0x10,%esp
 804a99e:	89 45 e8             	mov    %eax,-0x18(%ebp)
 804a9a1:	83 7d e8 00          	cmpl   $0x0,-0x18(%ebp)
 804a9a5:	75 2e                	jne    804a9d5 <init_driver+0xf1>
 804a9a7:	83 ec 04             	sub    $0x4,%esp
 804a9aa:	ff 75 f4             	pushl  -0xc(%ebp)
 804a9ad:	68 f8 b5 04 08       	push   $0x804b5f8
 804a9b2:	ff 75 08             	pushl  0x8(%ebp)
 804a9b5:	e8 46 e8 ff ff       	call   8049200 <sprintf@plt>
 804a9ba:	83 c4 10             	add    $0x10,%esp
 804a9bd:	83 ec 0c             	sub    $0xc,%esp
 804a9c0:	ff 75 ec             	pushl  -0x14(%ebp)
 804a9c3:	e8 98 e8 ff ff       	call   8049260 <close@plt>
 804a9c8:	83 c4 10             	add    $0x10,%esp
 804a9cb:	b8 ff ff ff ff       	mov    $0xffffffff,%eax
 804a9d0:	e9 c0 00 00 00       	jmp    804aa95 <init_driver+0x1b1>
 804a9d5:	8d 45 d8             	lea    -0x28(%ebp),%eax
 804a9d8:	c7 00 00 00 00 00    	movl   $0x0,(%eax)
 804a9de:	c7 40 04 00 00 00 00 	movl   $0x0,0x4(%eax)
 804a9e5:	c7 40 08 00 00 00 00 	movl   $0x0,0x8(%eax)
 804a9ec:	c7 40 0c 00 00 00 00 	movl   $0x0,0xc(%eax)
 804a9f3:	66 c7 45 d8 02 00    	movw   $0x2,-0x28(%ebp)
 804a9f9:	8b 45 e8             	mov    -0x18(%ebp),%eax
 804a9fc:	8b 40 0c             	mov    0xc(%eax),%eax
 804a9ff:	89 c2                	mov    %eax,%edx
 804aa01:	8b 45 e8             	mov    -0x18(%ebp),%eax
 804aa04:	8b 40 10             	mov    0x10(%eax),%eax
 804aa07:	8b 00                	mov    (%eax),%eax
 804aa09:	83 ec 04             	sub    $0x4,%esp
 804aa0c:	52                   	push   %edx
 804aa0d:	50                   	push   %eax
 804aa0e:	8d 45 d8             	lea    -0x28(%ebp),%eax
 804aa11:	83 c0 04             	add    $0x4,%eax
 804aa14:	50                   	push   %eax
 804aa15:	e8 56 e6 ff ff       	call   8049070 <memmove@plt>
 804aa1a:	83 c4 10             	add    $0x10,%esp
 804aa1d:	8b 45 f0             	mov    -0x10(%ebp),%eax
 804aa20:	0f b7 c0             	movzwl %ax,%eax
 804aa23:	83 ec 0c             	sub    $0xc,%esp
 804aa26:	50                   	push   %eax
 804aa27:	e8 a4 e6 ff ff       	call   80490d0 <htons@plt>
 804aa2c:	83 c4 10             	add    $0x10,%esp
 804aa2f:	66 89 45 da          	mov    %ax,-0x26(%ebp)
 804aa33:	83 ec 04             	sub    $0x4,%esp
 804aa36:	6a 10                	push   $0x10
 804aa38:	8d 45 d8             	lea    -0x28(%ebp),%eax
 804aa3b:	50                   	push   %eax
 804aa3c:	ff 75 ec             	pushl  -0x14(%ebp)
 804aa3f:	e8 0c e8 ff ff       	call   8049250 <connect@plt>
 804aa44:	83 c4 10             	add    $0x10,%esp
 804aa47:	85 c0                	test   %eax,%eax
 804aa49:	79 2b                	jns    804aa76 <init_driver+0x192>
 804aa4b:	ff 75 f0             	pushl  -0x10(%ebp)
 804aa4e:	ff 75 f4             	pushl  -0xc(%ebp)
 804aa51:	68 30 b7 04 08       	push   $0x804b730
 804aa56:	ff 75 08             	pushl  0x8(%ebp)
 804aa59:	e8 a2 e7 ff ff       	call   8049200 <sprintf@plt>
 804aa5e:	83 c4 10             	add    $0x10,%esp
 804aa61:	83 ec 0c             	sub    $0xc,%esp
 804aa64:	ff 75 ec             	pushl  -0x14(%ebp)
 804aa67:	e8 f4 e7 ff ff       	call   8049260 <close@plt>
 804aa6c:	83 c4 10             	add    $0x10,%esp
 804aa6f:	b8 ff ff ff ff       	mov    $0xffffffff,%eax
 804aa74:	eb 1f                	jmp    804aa95 <init_driver+0x1b1>
 804aa76:	83 ec 0c             	sub    $0xc,%esp
 804aa79:	ff 75 ec             	pushl  -0x14(%ebp)
 804aa7c:	e8 df e7 ff ff       	call   8049260 <close@plt>
 804aa81:	83 c4 10             	add    $0x10,%esp
 804aa84:	8b 45 08             	mov    0x8(%ebp),%eax
 804aa87:	66 c7 00 4f 4b       	movw   $0x4b4f,(%eax)
 804aa8c:	c6 40 02 00          	movb   $0x0,0x2(%eax)
 804aa90:	b8 00 00 00 00       	mov    $0x0,%eax
 804aa95:	c9                   	leave  
 804aa96:	c3                   	ret    

0804aa97 <driver_post>:
 804aa97:	55                   	push   %ebp
 804aa98:	89 e5                	mov    %esp,%ebp
 804aa9a:	83 ec 18             	sub    $0x18,%esp
 804aa9d:	83 7d 10 00          	cmpl   $0x0,0x10(%ebp)
 804aaa1:	74 26                	je     804aac9 <driver_post+0x32>
 804aaa3:	83 ec 08             	sub    $0x8,%esp
 804aaa6:	ff 75 0c             	pushl  0xc(%ebp)
 804aaa9:	68 59 b7 04 08       	push   $0x804b759
 804aaae:	e8 ad e5 ff ff       	call   8049060 <printf@plt>
 804aab3:	83 c4 10             	add    $0x10,%esp
 804aab6:	8b 45 14             	mov    0x14(%ebp),%eax
 804aab9:	66 c7 00 4f 4b       	movw   $0x4b4f,(%eax)
 804aabe:	c6 40 02 00          	movb   $0x0,0x2(%eax)
 804aac2:	b8 00 00 00 00       	mov    $0x0,%eax
 804aac7:	eb 54                	jmp    804ab1d <driver_post+0x86>
 804aac9:	83 7d 08 00          	cmpl   $0x0,0x8(%ebp)
 804aacd:	74 3d                	je     804ab0c <driver_post+0x75>
 804aacf:	8b 45 08             	mov    0x8(%ebp),%eax
 804aad2:	0f b6 00             	movzbl (%eax),%eax
 804aad5:	0f b6 c0             	movzbl %al,%eax
 804aad8:	85 c0                	test   %eax,%eax
 804aada:	74 30                	je     804ab0c <driver_post+0x75>
 804aadc:	83 ec 04             	sub    $0x4,%esp
 804aadf:	ff 75 14             	pushl  0x14(%ebp)
 804aae2:	ff 75 0c             	pushl  0xc(%ebp)
 804aae5:	68 70 b7 04 08       	push   $0x804b770
 804aaea:	ff 75 08             	pushl  0x8(%ebp)
 804aaed:	68 77 b7 04 08       	push   $0x804b777
 804aaf2:	68 03 d9 00 00       	push   $0xd903
 804aaf7:	68 1f b7 04 08       	push   $0x804b71f
 804aafc:	e8 6b f7 ff ff       	call   804a26c <submitr>
 804ab01:	83 c4 20             	add    $0x20,%esp
 804ab04:	89 45 f4             	mov    %eax,-0xc(%ebp)
 804ab07:	8b 45 f4             	mov    -0xc(%ebp),%eax
 804ab0a:	eb 11                	jmp    804ab1d <driver_post+0x86>
 804ab0c:	8b 45 14             	mov    0x14(%ebp),%eax
 804ab0f:	66 c7 00 4f 4b       	movw   $0x4b4f,(%eax)
 804ab14:	c6 40 02 00          	movb   $0x0,0x2(%eax)
 804ab18:	b8 00 00 00 00       	mov    $0x0,%eax
 804ab1d:	c9                   	leave  
 804ab1e:	c3                   	ret    

0804ab1f <hash>:
 804ab1f:	55                   	push   %ebp
 804ab20:	89 e5                	mov    %esp,%ebp
 804ab22:	83 ec 10             	sub    $0x10,%esp
 804ab25:	c7 45 fc 00 00 00 00 	movl   $0x0,-0x4(%ebp)
 804ab2c:	eb 1a                	jmp    804ab48 <hash+0x29>
 804ab2e:	8b 45 fc             	mov    -0x4(%ebp),%eax
 804ab31:	6b c8 67             	imul   $0x67,%eax,%ecx
 804ab34:	8b 45 08             	mov    0x8(%ebp),%eax
 804ab37:	8d 50 01             	lea    0x1(%eax),%edx
 804ab3a:	89 55 08             	mov    %edx,0x8(%ebp)
 804ab3d:	0f b6 00             	movzbl (%eax),%eax
 804ab40:	0f be c0             	movsbl %al,%eax
 804ab43:	01 c8                	add    %ecx,%eax
 804ab45:	89 45 fc             	mov    %eax,-0x4(%ebp)
 804ab48:	8b 45 08             	mov    0x8(%ebp),%eax
 804ab4b:	0f b6 00             	movzbl (%eax),%eax
 804ab4e:	84 c0                	test   %al,%al
 804ab50:	75 dc                	jne    804ab2e <hash+0xf>
 804ab52:	8b 45 fc             	mov    -0x4(%ebp),%eax
 804ab55:	c9                   	leave  
 804ab56:	c3                   	ret    

0804ab57 <check>:
 804ab57:	55                   	push   %ebp
 804ab58:	89 e5                	mov    %esp,%ebp
 804ab5a:	83 ec 10             	sub    $0x10,%esp
 804ab5d:	8b 45 08             	mov    0x8(%ebp),%eax
 804ab60:	c1 e8 1c             	shr    $0x1c,%eax
 804ab63:	85 c0                	test   %eax,%eax
 804ab65:	75 07                	jne    804ab6e <check+0x17>
 804ab67:	b8 00 00 00 00       	mov    $0x0,%eax
 804ab6c:	eb 33                	jmp    804aba1 <check+0x4a>
 804ab6e:	c7 45 fc 00 00 00 00 	movl   $0x0,-0x4(%ebp)
 804ab75:	eb 1f                	jmp    804ab96 <check+0x3f>
 804ab77:	8b 45 fc             	mov    -0x4(%ebp),%eax
 804ab7a:	8b 55 08             	mov    0x8(%ebp),%edx
 804ab7d:	89 c1                	mov    %eax,%ecx
 804ab7f:	d3 ea                	shr    %cl,%edx
 804ab81:	89 d0                	mov    %edx,%eax
 804ab83:	0f b6 c0             	movzbl %al,%eax
 804ab86:	83 f8 0a             	cmp    $0xa,%eax
 804ab89:	75 07                	jne    804ab92 <check+0x3b>
 804ab8b:	b8 00 00 00 00       	mov    $0x0,%eax
 804ab90:	eb 0f                	jmp    804aba1 <check+0x4a>
 804ab92:	83 45 fc 08          	addl   $0x8,-0x4(%ebp)
 804ab96:	83 7d fc 1f          	cmpl   $0x1f,-0x4(%ebp)
 804ab9a:	7e db                	jle    804ab77 <check+0x20>
 804ab9c:	b8 01 00 00 00       	mov    $0x1,%eax
 804aba1:	c9                   	leave  
 804aba2:	c3                   	ret    

0804aba3 <gencookie>:
 804aba3:	55                   	push   %ebp
 804aba4:	89 e5                	mov    %esp,%ebp
 804aba6:	83 ec 18             	sub    $0x18,%esp
 804aba9:	ff 75 08             	pushl  0x8(%ebp)
 804abac:	e8 6e ff ff ff       	call   804ab1f <hash>
 804abb1:	83 c4 04             	add    $0x4,%esp
 804abb4:	83 ec 0c             	sub    $0xc,%esp
 804abb7:	50                   	push   %eax
 804abb8:	e8 83 e5 ff ff       	call   8049140 <srand@plt>
 804abbd:	83 c4 10             	add    $0x10,%esp
 804abc0:	e8 1b e6 ff ff       	call   80491e0 <rand@plt>
 804abc5:	89 45 f4             	mov    %eax,-0xc(%ebp)
 804abc8:	83 ec 0c             	sub    $0xc,%esp
 804abcb:	ff 75 f4             	pushl  -0xc(%ebp)
 804abce:	e8 84 ff ff ff       	call   804ab57 <check>
 804abd3:	83 c4 10             	add    $0x10,%esp
 804abd6:	85 c0                	test   %eax,%eax
 804abd8:	74 e6                	je     804abc0 <gencookie+0x1d>
 804abda:	8b 45 f4             	mov    -0xc(%ebp),%eax
 804abdd:	c9                   	leave  
 804abde:	c3                   	ret    
 804abdf:	90                   	nop

0804abe0 <__libc_csu_init>:
 804abe0:	55                   	push   %ebp
 804abe1:	57                   	push   %edi
 804abe2:	56                   	push   %esi
 804abe3:	53                   	push   %ebx
 804abe4:	e8 e7 e6 ff ff       	call   80492d0 <__x86.get_pc_thunk.bx>
 804abe9:	81 c3 17 24 00 00    	add    $0x2417,%ebx
 804abef:	83 ec 0c             	sub    $0xc,%esp
 804abf2:	8b 6c 24 28          	mov    0x28(%esp),%ebp
 804abf6:	e8 05 e4 ff ff       	call   8049000 <_init>
 804abfb:	8d b3 10 ff ff ff    	lea    -0xf0(%ebx),%esi
 804ac01:	8d 83 0c ff ff ff    	lea    -0xf4(%ebx),%eax
 804ac07:	29 c6                	sub    %eax,%esi
 804ac09:	c1 fe 02             	sar    $0x2,%esi
 804ac0c:	74 1f                	je     804ac2d <__libc_csu_init+0x4d>
 804ac0e:	31 ff                	xor    %edi,%edi
 804ac10:	83 ec 04             	sub    $0x4,%esp
 804ac13:	55                   	push   %ebp
 804ac14:	ff 74 24 2c          	pushl  0x2c(%esp)
 804ac18:	ff 74 24 2c          	pushl  0x2c(%esp)
 804ac1c:	ff 94 bb 0c ff ff ff 	call   *-0xf4(%ebx,%edi,4)
 804ac23:	83 c7 01             	add    $0x1,%edi
 804ac26:	83 c4 10             	add    $0x10,%esp
 804ac29:	39 fe                	cmp    %edi,%esi
 804ac2b:	75 e3                	jne    804ac10 <__libc_csu_init+0x30>
 804ac2d:	83 c4 0c             	add    $0xc,%esp
 804ac30:	5b                   	pop    %ebx
 804ac31:	5e                   	pop    %esi
 804ac32:	5f                   	pop    %edi
 804ac33:	5d                   	pop    %ebp
 804ac34:	c3                   	ret    
 804ac35:	8d b4 26 00 00 00 00 	lea    0x0(%esi,%eiz,1),%esi
 804ac3c:	8d 74 26 00          	lea    0x0(%esi,%eiz,1),%esi

0804ac40 <__libc_csu_fini>:
 804ac40:	c3                   	ret    

Disassembly of section .fini:

0804ac44 <_fini>:
 804ac44:	53                   	push   %ebx
 804ac45:	83 ec 08             	sub    $0x8,%esp
 804ac48:	e8 83 e6 ff ff       	call   80492d0 <__x86.get_pc_thunk.bx>
 804ac4d:	81 c3 b3 23 00 00    	add    $0x23b3,%ebx
 804ac53:	83 c4 08             	add    $0x8,%esp
 804ac56:	5b                   	pop    %ebx
 804ac57:	c3                   	ret    
