
bomb:     file format elf32-i386


Disassembly of section .init:

08049000 <_init>:
 8049000:	53                   	push   %ebx
 8049001:	83 ec 08             	sub    $0x8,%esp
 8049004:	e8 67 01 00 00       	call   8049170 <__x86.get_pc_thunk.bx>
 8049009:	81 c3 f7 2f 00 00    	add    $0x2ff7,%ebx
 804900f:	8b 83 fc ff ff ff    	mov    -0x4(%ebx),%eax
 8049015:	85 c0                	test   %eax,%eax
 8049017:	74 02                	je     804901b <_init+0x1b>
 8049019:	ff d0                	call   *%eax
 804901b:	83 c4 08             	add    $0x8,%esp
 804901e:	5b                   	pop    %ebx
 804901f:	c3                   	ret    

Disassembly of section .plt:

08049020 <.plt>:
 8049020:	ff 35 04 c0 04 08    	pushl  0x804c004
 8049026:	ff 25 08 c0 04 08    	jmp    *0x804c008
 804902c:	00 00                	add    %al,(%eax)
	...

08049030 <printf@plt>:
 8049030:	ff 25 0c c0 04 08    	jmp    *0x804c00c
 8049036:	68 00 00 00 00       	push   $0x0
 804903b:	e9 e0 ff ff ff       	jmp    8049020 <.plt>

08049040 <fflush@plt>:
 8049040:	ff 25 10 c0 04 08    	jmp    *0x804c010
 8049046:	68 08 00 00 00       	push   $0x8
 804904b:	e9 d0 ff ff ff       	jmp    8049020 <.plt>

08049050 <fgets@plt>:
 8049050:	ff 25 14 c0 04 08    	jmp    *0x804c014
 8049056:	68 10 00 00 00       	push   $0x10
 804905b:	e9 c0 ff ff ff       	jmp    8049020 <.plt>

08049060 <signal@plt>:
 8049060:	ff 25 18 c0 04 08    	jmp    *0x804c018
 8049066:	68 18 00 00 00       	push   $0x18
 804906b:	e9 b0 ff ff ff       	jmp    8049020 <.plt>

08049070 <sleep@plt>:
 8049070:	ff 25 1c c0 04 08    	jmp    *0x804c01c
 8049076:	68 20 00 00 00       	push   $0x20
 804907b:	e9 a0 ff ff ff       	jmp    8049020 <.plt>

08049080 <getenv@plt>:
 8049080:	ff 25 20 c0 04 08    	jmp    *0x804c020
 8049086:	68 28 00 00 00       	push   $0x28
 804908b:	e9 90 ff ff ff       	jmp    8049020 <.plt>

08049090 <puts@plt>:
 8049090:	ff 25 24 c0 04 08    	jmp    *0x804c024
 8049096:	68 30 00 00 00       	push   $0x30
 804909b:	e9 80 ff ff ff       	jmp    8049020 <.plt>

080490a0 <exit@plt>:
 80490a0:	ff 25 28 c0 04 08    	jmp    *0x804c028
 80490a6:	68 38 00 00 00       	push   $0x38
 80490ab:	e9 70 ff ff ff       	jmp    8049020 <.plt>

080490b0 <strlen@plt>:
 80490b0:	ff 25 2c c0 04 08    	jmp    *0x804c02c
 80490b6:	68 40 00 00 00       	push   $0x40
 80490bb:	e9 60 ff ff ff       	jmp    8049020 <.plt>

080490c0 <__libc_start_main@plt>:
 80490c0:	ff 25 30 c0 04 08    	jmp    *0x804c030
 80490c6:	68 48 00 00 00       	push   $0x48
 80490cb:	e9 50 ff ff ff       	jmp    8049020 <.plt>

080490d0 <__isoc99_sscanf@plt>:
 80490d0:	ff 25 34 c0 04 08    	jmp    *0x804c034
 80490d6:	68 50 00 00 00       	push   $0x50
 80490db:	e9 40 ff ff ff       	jmp    8049020 <.plt>

080490e0 <fopen@plt>:
 80490e0:	ff 25 38 c0 04 08    	jmp    *0x804c038
 80490e6:	68 58 00 00 00       	push   $0x58
 80490eb:	e9 30 ff ff ff       	jmp    8049020 <.plt>

080490f0 <strtok@plt>:
 80490f0:	ff 25 3c c0 04 08    	jmp    *0x804c03c
 80490f6:	68 60 00 00 00       	push   $0x60
 80490fb:	e9 20 ff ff ff       	jmp    8049020 <.plt>

08049100 <atoi@plt>:
 8049100:	ff 25 40 c0 04 08    	jmp    *0x804c040
 8049106:	68 68 00 00 00       	push   $0x68
 804910b:	e9 10 ff ff ff       	jmp    8049020 <.plt>

08049110 <__ctype_b_loc@plt>:
 8049110:	ff 25 44 c0 04 08    	jmp    *0x804c044
 8049116:	68 70 00 00 00       	push   $0x70
 804911b:	e9 00 ff ff ff       	jmp    8049020 <.plt>

Disassembly of section .text:

08049120 <_start>:
 8049120:	31 ed                	xor    %ebp,%ebp
 8049122:	5e                   	pop    %esi
 8049123:	89 e1                	mov    %esp,%ecx
 8049125:	83 e4 f0             	and    $0xfffffff0,%esp
 8049128:	50                   	push   %eax
 8049129:	54                   	push   %esp
 804912a:	52                   	push   %edx
 804912b:	e8 23 00 00 00       	call   8049153 <_start+0x33>
 8049130:	81 c3 d0 2e 00 00    	add    $0x2ed0,%ebx
 8049136:	8d 83 b0 df ff ff    	lea    -0x2050(%ebx),%eax
 804913c:	50                   	push   %eax
 804913d:	8d 83 50 df ff ff    	lea    -0x20b0(%ebx),%eax
 8049143:	50                   	push   %eax
 8049144:	51                   	push   %ecx
 8049145:	56                   	push   %esi
 8049146:	c7 c0 32 92 04 08    	mov    $0x8049232,%eax
 804914c:	50                   	push   %eax
 804914d:	e8 6e ff ff ff       	call   80490c0 <__libc_start_main@plt>
 8049152:	f4                   	hlt    
 8049153:	8b 1c 24             	mov    (%esp),%ebx
 8049156:	c3                   	ret    
 8049157:	66 90                	xchg   %ax,%ax
 8049159:	66 90                	xchg   %ax,%ax
 804915b:	66 90                	xchg   %ax,%ax
 804915d:	66 90                	xchg   %ax,%ax
 804915f:	90                   	nop

08049160 <_dl_relocate_static_pie>:
 8049160:	c3                   	ret    
 8049161:	66 90                	xchg   %ax,%ax
 8049163:	66 90                	xchg   %ax,%ax
 8049165:	66 90                	xchg   %ax,%ax
 8049167:	66 90                	xchg   %ax,%ax
 8049169:	66 90                	xchg   %ax,%ax
 804916b:	66 90                	xchg   %ax,%ax
 804916d:	66 90                	xchg   %ax,%ax
 804916f:	90                   	nop

08049170 <__x86.get_pc_thunk.bx>:
 8049170:	8b 1c 24             	mov    (%esp),%ebx
 8049173:	c3                   	ret    
 8049174:	66 90                	xchg   %ax,%ax
 8049176:	66 90                	xchg   %ax,%ax
 8049178:	66 90                	xchg   %ax,%ax
 804917a:	66 90                	xchg   %ax,%ax
 804917c:	66 90                	xchg   %ax,%ax
 804917e:	66 90                	xchg   %ax,%ax

08049180 <deregister_tm_clones>:
 8049180:	b8 24 c2 04 08       	mov    $0x804c224,%eax
 8049185:	3d 24 c2 04 08       	cmp    $0x804c224,%eax
 804918a:	74 24                	je     80491b0 <deregister_tm_clones+0x30>
 804918c:	b8 00 00 00 00       	mov    $0x0,%eax
 8049191:	85 c0                	test   %eax,%eax
 8049193:	74 1b                	je     80491b0 <deregister_tm_clones+0x30>
 8049195:	55                   	push   %ebp
 8049196:	89 e5                	mov    %esp,%ebp
 8049198:	83 ec 14             	sub    $0x14,%esp
 804919b:	68 24 c2 04 08       	push   $0x804c224
 80491a0:	ff d0                	call   *%eax
 80491a2:	83 c4 10             	add    $0x10,%esp
 80491a5:	c9                   	leave  
 80491a6:	c3                   	ret    
 80491a7:	8d b4 26 00 00 00 00 	lea    0x0(%esi,%eiz,1),%esi
 80491ae:	66 90                	xchg   %ax,%ax
 80491b0:	c3                   	ret    
 80491b1:	8d b4 26 00 00 00 00 	lea    0x0(%esi,%eiz,1),%esi
 80491b8:	8d b4 26 00 00 00 00 	lea    0x0(%esi,%eiz,1),%esi
 80491bf:	90                   	nop

080491c0 <register_tm_clones>:
 80491c0:	b8 24 c2 04 08       	mov    $0x804c224,%eax
 80491c5:	2d 24 c2 04 08       	sub    $0x804c224,%eax
 80491ca:	c1 f8 02             	sar    $0x2,%eax
 80491cd:	89 c2                	mov    %eax,%edx
 80491cf:	c1 ea 1f             	shr    $0x1f,%edx
 80491d2:	01 d0                	add    %edx,%eax
 80491d4:	d1 f8                	sar    %eax
 80491d6:	74 20                	je     80491f8 <register_tm_clones+0x38>
 80491d8:	ba 00 00 00 00       	mov    $0x0,%edx
 80491dd:	85 d2                	test   %edx,%edx
 80491df:	74 17                	je     80491f8 <register_tm_clones+0x38>
 80491e1:	55                   	push   %ebp
 80491e2:	89 e5                	mov    %esp,%ebp
 80491e4:	83 ec 10             	sub    $0x10,%esp
 80491e7:	50                   	push   %eax
 80491e8:	68 24 c2 04 08       	push   $0x804c224
 80491ed:	ff d2                	call   *%edx
 80491ef:	83 c4 10             	add    $0x10,%esp
 80491f2:	c9                   	leave  
 80491f3:	c3                   	ret    
 80491f4:	8d 74 26 00          	lea    0x0(%esi,%eiz,1),%esi
 80491f8:	c3                   	ret    
 80491f9:	8d b4 26 00 00 00 00 	lea    0x0(%esi,%eiz,1),%esi

08049200 <__do_global_dtors_aux>:
 8049200:	80 3d 48 c2 04 08 00 	cmpb   $0x0,0x804c248
 8049207:	75 17                	jne    8049220 <__do_global_dtors_aux+0x20>
 8049209:	55                   	push   %ebp
 804920a:	89 e5                	mov    %esp,%ebp
 804920c:	83 ec 08             	sub    $0x8,%esp
 804920f:	e8 6c ff ff ff       	call   8049180 <deregister_tm_clones>
 8049214:	c6 05 48 c2 04 08 01 	movb   $0x1,0x804c248
 804921b:	c9                   	leave  
 804921c:	c3                   	ret    
 804921d:	8d 76 00             	lea    0x0(%esi),%esi
 8049220:	c3                   	ret    
 8049221:	8d b4 26 00 00 00 00 	lea    0x0(%esi,%eiz,1),%esi
 8049228:	8d b4 26 00 00 00 00 	lea    0x0(%esi,%eiz,1),%esi
 804922f:	90                   	nop

08049230 <frame_dummy>:
 8049230:	eb 8e                	jmp    80491c0 <register_tm_clones>

08049232 <main>:
 8049232:	8d 4c 24 04          	lea    0x4(%esp),%ecx
 8049236:	83 e4 f0             	and    $0xfffffff0,%esp
 8049239:	ff 71 fc             	pushl  -0x4(%ecx)
 804923c:	55                   	push   %ebp
 804923d:	89 e5                	mov    %esp,%ebp
 804923f:	53                   	push   %ebx
 8049240:	51                   	push   %ecx
 8049241:	83 ec 10             	sub    $0x10,%esp
 8049244:	89 cb                	mov    %ecx,%ebx
 8049246:	83 3b 01             	cmpl   $0x1,(%ebx)
 8049249:	75 0c                	jne    8049257 <main+0x25>
 804924b:	a1 40 c2 04 08       	mov    0x804c240,%eax
 8049250:	a3 50 c2 04 08       	mov    %eax,0x804c250
 8049255:	eb 75                	jmp    80492cc <main+0x9a>
 8049257:	83 3b 02             	cmpl   $0x2,(%ebx)
 804925a:	75 50                	jne    80492ac <main+0x7a>
 804925c:	8b 43 04             	mov    0x4(%ebx),%eax
 804925f:	83 c0 04             	add    $0x4,%eax
 8049262:	8b 00                	mov    (%eax),%eax
 8049264:	83 ec 08             	sub    $0x8,%esp
 8049267:	68 08 a0 04 08       	push   $0x804a008
 804926c:	50                   	push   %eax
 804926d:	e8 6e fe ff ff       	call   80490e0 <fopen@plt>
 8049272:	83 c4 10             	add    $0x10,%esp
 8049275:	a3 50 c2 04 08       	mov    %eax,0x804c250
 804927a:	a1 50 c2 04 08       	mov    0x804c250,%eax
 804927f:	85 c0                	test   %eax,%eax
 8049281:	75 49                	jne    80492cc <main+0x9a>
 8049283:	8b 43 04             	mov    0x4(%ebx),%eax
 8049286:	83 c0 04             	add    $0x4,%eax
 8049289:	8b 10                	mov    (%eax),%edx
 804928b:	8b 43 04             	mov    0x4(%ebx),%eax
 804928e:	8b 00                	mov    (%eax),%eax
 8049290:	83 ec 04             	sub    $0x4,%esp
 8049293:	52                   	push   %edx
 8049294:	50                   	push   %eax
 8049295:	68 0a a0 04 08       	push   $0x804a00a
 804929a:	e8 91 fd ff ff       	call   8049030 <printf@plt>
 804929f:	83 c4 10             	add    $0x10,%esp
 80492a2:	83 ec 0c             	sub    $0xc,%esp
 80492a5:	6a 08                	push   $0x8
 80492a7:	e8 f4 fd ff ff       	call   80490a0 <exit@plt>
 80492ac:	8b 43 04             	mov    0x4(%ebx),%eax
 80492af:	8b 00                	mov    (%eax),%eax
 80492b1:	83 ec 08             	sub    $0x8,%esp
 80492b4:	50                   	push   %eax
 80492b5:	68 27 a0 04 08       	push   $0x804a027
 80492ba:	e8 71 fd ff ff       	call   8049030 <printf@plt>
 80492bf:	83 c4 10             	add    $0x10,%esp
 80492c2:	83 ec 0c             	sub    $0xc,%esp
 80492c5:	6a 08                	push   $0x8
 80492c7:	e8 d4 fd ff ff       	call   80490a0 <exit@plt>
 80492cc:	e8 c6 09 00 00       	call   8049c97 <initialize_bomb>
 80492d1:	83 ec 0c             	sub    $0xc,%esp
 80492d4:	68 44 a0 04 08       	push   $0x804a044
 80492d9:	e8 b2 fd ff ff       	call   8049090 <puts@plt>
 80492de:	83 c4 10             	add    $0x10,%esp
 80492e1:	83 ec 0c             	sub    $0xc,%esp
 80492e4:	68 80 a0 04 08       	push   $0x804a080
 80492e9:	e8 a2 fd ff ff       	call   8049090 <puts@plt>
 80492ee:	83 c4 10             	add    $0x10,%esp
 80492f1:	e8 5b 0a 00 00       	call   8049d51 <read_line>
 80492f6:	89 45 f4             	mov    %eax,-0xc(%ebp)
 80492f9:	83 ec 0c             	sub    $0xc,%esp
 80492fc:	ff 75 f4             	pushl  -0xc(%ebp)
 80492ff:	e8 57 01 00 00       	call   804945b <phase_0>
 8049304:	83 c4 10             	add    $0x10,%esp
 8049307:	85 c0                	test   %eax,%eax
 8049309:	74 15                	je     8049320 <main+0xee>
 804930b:	e8 ad 0b 00 00       	call   8049ebd <phase_defused>
 8049310:	83 ec 0c             	sub    $0xc,%esp
 8049313:	68 ac a0 04 08       	push   $0x804a0ac
 8049318:	e8 73 fd ff ff       	call   8049090 <puts@plt>
 804931d:	83 c4 10             	add    $0x10,%esp
 8049320:	e8 2c 0a 00 00       	call   8049d51 <read_line>
 8049325:	89 45 f4             	mov    %eax,-0xc(%ebp)
 8049328:	83 ec 0c             	sub    $0xc,%esp
 804932b:	ff 75 f4             	pushl  -0xc(%ebp)
 804932e:	e8 58 01 00 00       	call   804948b <phase_1>
 8049333:	83 c4 10             	add    $0x10,%esp
 8049336:	85 c0                	test   %eax,%eax
 8049338:	74 15                	je     804934f <main+0x11d>
 804933a:	e8 7e 0b 00 00       	call   8049ebd <phase_defused>
 804933f:	83 ec 0c             	sub    $0xc,%esp
 8049342:	68 d4 a0 04 08       	push   $0x804a0d4
 8049347:	e8 44 fd ff ff       	call   8049090 <puts@plt>
 804934c:	83 c4 10             	add    $0x10,%esp
 804934f:	e8 fd 09 00 00       	call   8049d51 <read_line>
 8049354:	89 45 f4             	mov    %eax,-0xc(%ebp)
 8049357:	83 ec 0c             	sub    $0xc,%esp
 804935a:	ff 75 f4             	pushl  -0xc(%ebp)
 804935d:	e8 9b 01 00 00       	call   80494fd <phase_2>
 8049362:	83 c4 10             	add    $0x10,%esp
 8049365:	85 c0                	test   %eax,%eax
 8049367:	74 15                	je     804937e <main+0x14c>
 8049369:	e8 4f 0b 00 00       	call   8049ebd <phase_defused>
 804936e:	83 ec 0c             	sub    $0xc,%esp
 8049371:	68 fd a0 04 08       	push   $0x804a0fd
 8049376:	e8 15 fd ff ff       	call   8049090 <puts@plt>
 804937b:	83 c4 10             	add    $0x10,%esp
 804937e:	e8 ce 09 00 00       	call   8049d51 <read_line>
 8049383:	89 45 f4             	mov    %eax,-0xc(%ebp)
 8049386:	83 ec 0c             	sub    $0xc,%esp
 8049389:	ff 75 f4             	pushl  -0xc(%ebp)
 804938c:	e8 e7 01 00 00       	call   8049578 <phase_3>
 8049391:	83 c4 10             	add    $0x10,%esp
 8049394:	85 c0                	test   %eax,%eax
 8049396:	74 15                	je     80493ad <main+0x17b>
 8049398:	e8 20 0b 00 00       	call   8049ebd <phase_defused>
 804939d:	83 ec 0c             	sub    $0xc,%esp
 80493a0:	68 1b a1 04 08       	push   $0x804a11b
 80493a5:	e8 e6 fc ff ff       	call   8049090 <puts@plt>
 80493aa:	83 c4 10             	add    $0x10,%esp
 80493ad:	e8 9f 09 00 00       	call   8049d51 <read_line>
 80493b2:	89 45 f4             	mov    %eax,-0xc(%ebp)
 80493b5:	83 ec 0c             	sub    $0xc,%esp
 80493b8:	ff 75 f4             	pushl  -0xc(%ebp)
 80493bb:	e8 87 03 00 00       	call   8049747 <phase_4>
 80493c0:	83 c4 10             	add    $0x10,%esp
 80493c3:	85 c0                	test   %eax,%eax
 80493c5:	74 15                	je     80493dc <main+0x1aa>
 80493c7:	e8 f1 0a 00 00       	call   8049ebd <phase_defused>
 80493cc:	83 ec 0c             	sub    $0xc,%esp
 80493cf:	68 2c a1 04 08       	push   $0x804a12c
 80493d4:	e8 b7 fc ff ff       	call   8049090 <puts@plt>
 80493d9:	83 c4 10             	add    $0x10,%esp
 80493dc:	e8 70 09 00 00       	call   8049d51 <read_line>
 80493e1:	89 45 f4             	mov    %eax,-0xc(%ebp)
 80493e4:	83 ec 0c             	sub    $0xc,%esp
 80493e7:	ff 75 f4             	pushl  -0xc(%ebp)
 80493ea:	e8 c0 03 00 00       	call   80497af <phase_5>
 80493ef:	83 c4 10             	add    $0x10,%esp
 80493f2:	85 c0                	test   %eax,%eax
 80493f4:	74 15                	je     804940b <main+0x1d9>
 80493f6:	e8 c2 0a 00 00       	call   8049ebd <phase_defused>
 80493fb:	83 ec 0c             	sub    $0xc,%esp
 80493fe:	68 50 a1 04 08       	push   $0x804a150
 8049403:	e8 88 fc ff ff       	call   8049090 <puts@plt>
 8049408:	83 c4 10             	add    $0x10,%esp
 804940b:	e8 41 09 00 00       	call   8049d51 <read_line>
 8049410:	89 45 f4             	mov    %eax,-0xc(%ebp)
 8049413:	83 ec 0c             	sub    $0xc,%esp
 8049416:	ff 75 f4             	pushl  -0xc(%ebp)
 8049419:	e8 1e 04 00 00       	call   804983c <phase_6>
 804941e:	83 c4 10             	add    $0x10,%esp
 8049421:	85 c0                	test   %eax,%eax
 8049423:	74 05                	je     804942a <main+0x1f8>
 8049425:	e8 93 0a 00 00       	call   8049ebd <phase_defused>
 804942a:	b8 00 00 00 00       	mov    $0x0,%eax
 804942f:	8d 65 f8             	lea    -0x8(%ebp),%esp
 8049432:	59                   	pop    %ecx
 8049433:	5b                   	pop    %ebx
 8049434:	5d                   	pop    %ebp
 8049435:	8d 61 fc             	lea    -0x4(%ecx),%esp
 8049438:	c3                   	ret    

08049439 <DvqDWmhD>:
 8049439:	55                   	push   %ebp
 804943a:	89 e5                	mov    %esp,%ebp
 804943c:	53                   	push   %ebx
 804943d:	8b 45 0c             	mov    0xc(%ebp),%eax
 8049440:	8b 55 08             	mov    0x8(%ebp),%edx
 8049443:	89 d3                	mov    %edx,%ebx
 8049445:	89 c1                	mov    %eax,%ecx
 8049447:	d3 fb                	sar    %cl,%ebx
 8049449:	8b 45 08             	mov    0x8(%ebp),%eax
 804944c:	8b 55 0c             	mov    0xc(%ebp),%edx
 804944f:	89 c1                	mov    %eax,%ecx
 8049451:	d3 e2                	shl    %cl,%edx
 8049453:	89 d0                	mov    %edx,%eax
 8049455:	0f af c3             	imul   %ebx,%eax
 8049458:	5b                   	pop    %ebx
 8049459:	5d                   	pop    %ebp
 804945a:	c3                   	ret    

0804945b <phase_0>:
 804945b:	55                   	push   %ebp
 804945c:	89 e5                	mov    %esp,%ebp
 804945e:	83 ec 08             	sub    $0x8,%esp
 8049461:	83 ec 08             	sub    $0x8,%esp
 8049464:	68 e8 a1 04 08       	push   $0x804a1e8
 8049469:	ff 75 08             	pushl  0x8(%ebp)
 804946c:	e8 bb 07 00 00       	call   8049c2c <strings_not_equal>
 8049471:	83 c4 10             	add    $0x10,%esp
 8049474:	85 c0                	test   %eax,%eax
 8049476:	74 0c                	je     8049484 <phase_0+0x29>
 8049478:	e8 17 0a 00 00       	call   8049e94 <explode_bomb>
 804947d:	b8 00 00 00 00       	mov    $0x0,%eax
 8049482:	eb 05                	jmp    8049489 <phase_0+0x2e>
 8049484:	b8 01 00 00 00       	mov    $0x1,%eax
 8049489:	c9                   	leave  
 804948a:	c3                   	ret    

0804948b <phase_1>:
 804948b:	55                   	push   %ebp
 804948c:	89 e5                	mov    %esp,%ebp
 804948e:	83 ec 18             	sub    $0x18,%esp
 8049491:	c7 45 f4 15 71 3b 14 	movl   $0x143b7115,-0xc(%ebp)
 8049498:	db 45 f4             	fildl  -0xc(%ebp)
 804949b:	d9 5d f0             	fstps  -0x10(%ebp)
 804949e:	8d 45 e8             	lea    -0x18(%ebp),%eax
 80494a1:	50                   	push   %eax
 80494a2:	8d 45 ec             	lea    -0x14(%ebp),%eax
 80494a5:	50                   	push   %eax
 80494a6:	68 15 a2 04 08       	push   $0x804a215
 80494ab:	ff 75 08             	pushl  0x8(%ebp)
 80494ae:	e8 1d fc ff ff       	call   80490d0 <__isoc99_sscanf@plt>
 80494b3:	83 c4 10             	add    $0x10,%esp
 80494b6:	83 f8 02             	cmp    $0x2,%eax
 80494b9:	74 0c                	je     80494c7 <phase_1+0x3c>
 80494bb:	e8 d4 09 00 00       	call   8049e94 <explode_bomb>
 80494c0:	b8 00 00 00 00       	mov    $0x0,%eax
 80494c5:	eb 34                	jmp    80494fb <phase_1+0x70>
 80494c7:	8d 45 f0             	lea    -0x10(%ebp),%eax
 80494ca:	83 c0 02             	add    $0x2,%eax
 80494cd:	0f b7 00             	movzwl (%eax),%eax
 80494d0:	0f bf d0             	movswl %ax,%edx
 80494d3:	8b 45 ec             	mov    -0x14(%ebp),%eax
 80494d6:	39 c2                	cmp    %eax,%edx
 80494d8:	75 10                	jne    80494ea <phase_1+0x5f>
 80494da:	8d 45 f0             	lea    -0x10(%ebp),%eax
 80494dd:	0f b7 00             	movzwl (%eax),%eax
 80494e0:	0f bf d0             	movswl %ax,%edx
 80494e3:	8b 45 e8             	mov    -0x18(%ebp),%eax
 80494e6:	39 c2                	cmp    %eax,%edx
 80494e8:	74 0c                	je     80494f6 <phase_1+0x6b>
 80494ea:	e8 a5 09 00 00       	call   8049e94 <explode_bomb>
 80494ef:	b8 00 00 00 00       	mov    $0x0,%eax
 80494f4:	eb 05                	jmp    80494fb <phase_1+0x70>
 80494f6:	b8 01 00 00 00       	mov    $0x1,%eax
 80494fb:	c9                   	leave  
 80494fc:	c3                   	ret    

080494fd <phase_2>:
 80494fd:	55                   	push   %ebp
 80494fe:	89 e5                	mov    %esp,%ebp
 8049500:	83 ec 28             	sub    $0x28,%esp
 8049503:	83 ec 04             	sub    $0x4,%esp
 8049506:	6a 07                	push   $0x7
 8049508:	8d 45 d8             	lea    -0x28(%ebp),%eax
 804950b:	50                   	push   %eax
 804950c:	ff 75 08             	pushl  0x8(%ebp)
 804950f:	e8 5e 06 00 00       	call   8049b72 <read_n_numbers>
 8049514:	83 c4 10             	add    $0x10,%esp
 8049517:	85 c0                	test   %eax,%eax
 8049519:	75 07                	jne    8049522 <phase_2+0x25>
 804951b:	b8 00 00 00 00       	mov    $0x0,%eax
 8049520:	eb 54                	jmp    8049576 <phase_2+0x79>
 8049522:	8b 45 d8             	mov    -0x28(%ebp),%eax
 8049525:	3d d5 00 00 00       	cmp    $0xd5,%eax
 804952a:	74 0c                	je     8049538 <phase_2+0x3b>
 804952c:	e8 63 09 00 00       	call   8049e94 <explode_bomb>
 8049531:	b8 00 00 00 00       	mov    $0x0,%eax
 8049536:	eb 3e                	jmp    8049576 <phase_2+0x79>
 8049538:	c7 45 f4 01 00 00 00 	movl   $0x1,-0xc(%ebp)
 804953f:	eb 2a                	jmp    804956b <phase_2+0x6e>
 8049541:	8b 45 f4             	mov    -0xc(%ebp),%eax
 8049544:	8b 44 85 d8          	mov    -0x28(%ebp,%eax,4),%eax
 8049548:	8b 55 f4             	mov    -0xc(%ebp),%edx
 804954b:	83 ea 01             	sub    $0x1,%edx
 804954e:	8b 54 95 d8          	mov    -0x28(%ebp,%edx,4),%edx
 8049552:	d1 fa                	sar    %edx
 8049554:	83 c2 01             	add    $0x1,%edx
 8049557:	39 d0                	cmp    %edx,%eax
 8049559:	74 0c                	je     8049567 <phase_2+0x6a>
 804955b:	e8 34 09 00 00       	call   8049e94 <explode_bomb>
 8049560:	b8 00 00 00 00       	mov    $0x0,%eax
 8049565:	eb 0f                	jmp    8049576 <phase_2+0x79>
 8049567:	83 45 f4 01          	addl   $0x1,-0xc(%ebp)
 804956b:	83 7d f4 06          	cmpl   $0x6,-0xc(%ebp)
 804956f:	7e d0                	jle    8049541 <phase_2+0x44>
 8049571:	b8 01 00 00 00       	mov    $0x1,%eax
 8049576:	c9                   	leave  
 8049577:	c3                   	ret    

08049578 <phase_3>:
 8049578:	55                   	push   %ebp
 8049579:	89 e5                	mov    %esp,%ebp
 804957b:	83 ec 28             	sub    $0x28,%esp
 804957e:	c7 45 f0 00 00 00 00 	movl   $0x0,-0x10(%ebp)
 8049585:	83 ec 0c             	sub    $0xc,%esp
 8049588:	8d 45 e8             	lea    -0x18(%ebp),%eax
 804958b:	50                   	push   %eax
 804958c:	8d 45 e7             	lea    -0x19(%ebp),%eax
 804958f:	50                   	push   %eax
 8049590:	8d 45 ec             	lea    -0x14(%ebp),%eax
 8049593:	50                   	push   %eax
 8049594:	68 1b a2 04 08       	push   $0x804a21b
 8049599:	ff 75 08             	pushl  0x8(%ebp)
 804959c:	e8 2f fb ff ff       	call   80490d0 <__isoc99_sscanf@plt>
 80495a1:	83 c4 20             	add    $0x20,%esp
 80495a4:	89 45 f0             	mov    %eax,-0x10(%ebp)
 80495a7:	83 7d f0 02          	cmpl   $0x2,-0x10(%ebp)
 80495ab:	7f 0f                	jg     80495bc <phase_3+0x44>
 80495ad:	e8 e2 08 00 00       	call   8049e94 <explode_bomb>
 80495b2:	b8 00 00 00 00       	mov    $0x0,%eax
 80495b7:	e9 39 01 00 00       	jmp    80496f5 <phase_3+0x17d>
 80495bc:	8b 45 ec             	mov    -0x14(%ebp),%eax
 80495bf:	83 e8 29             	sub    $0x29,%eax
 80495c2:	83 f8 07             	cmp    $0x7,%eax
 80495c5:	0f 87 ea 00 00 00    	ja     80496b5 <phase_3+0x13d>
 80495cb:	8b 04 85 24 a2 04 08 	mov    0x804a224(,%eax,4),%eax
 80495d2:	ff e0                	jmp    *%eax
 80495d4:	c6 45 f7 69          	movb   $0x69,-0x9(%ebp)
 80495d8:	8b 45 e8             	mov    -0x18(%ebp),%eax
 80495db:	83 f8 42             	cmp    $0x42,%eax
 80495de:	0f 84 e1 00 00 00    	je     80496c5 <phase_3+0x14d>
 80495e4:	e8 ab 08 00 00       	call   8049e94 <explode_bomb>
 80495e9:	b8 00 00 00 00       	mov    $0x0,%eax
 80495ee:	e9 02 01 00 00       	jmp    80496f5 <phase_3+0x17d>
 80495f3:	c6 45 f7 69          	movb   $0x69,-0x9(%ebp)
 80495f7:	8b 45 e8             	mov    -0x18(%ebp),%eax
 80495fa:	83 f8 42             	cmp    $0x42,%eax
 80495fd:	0f 84 c5 00 00 00    	je     80496c8 <phase_3+0x150>
 8049603:	e8 8c 08 00 00       	call   8049e94 <explode_bomb>
 8049608:	b8 00 00 00 00       	mov    $0x0,%eax
 804960d:	e9 e3 00 00 00       	jmp    80496f5 <phase_3+0x17d>
 8049612:	c6 45 f7 69          	movb   $0x69,-0x9(%ebp)
 8049616:	8b 45 e8             	mov    -0x18(%ebp),%eax
 8049619:	83 f8 42             	cmp    $0x42,%eax
 804961c:	0f 84 a9 00 00 00    	je     80496cb <phase_3+0x153>
 8049622:	e8 6d 08 00 00       	call   8049e94 <explode_bomb>
 8049627:	b8 00 00 00 00       	mov    $0x0,%eax
 804962c:	e9 c4 00 00 00       	jmp    80496f5 <phase_3+0x17d>
 8049631:	c6 45 f7 69          	movb   $0x69,-0x9(%ebp)
 8049635:	8b 45 e8             	mov    -0x18(%ebp),%eax
 8049638:	83 f8 42             	cmp    $0x42,%eax
 804963b:	0f 84 8d 00 00 00    	je     80496ce <phase_3+0x156>
 8049641:	e8 4e 08 00 00       	call   8049e94 <explode_bomb>
 8049646:	b8 00 00 00 00       	mov    $0x0,%eax
 804964b:	e9 a5 00 00 00       	jmp    80496f5 <phase_3+0x17d>
 8049650:	c6 45 f7 69          	movb   $0x69,-0x9(%ebp)
 8049654:	8b 45 e8             	mov    -0x18(%ebp),%eax
 8049657:	83 f8 42             	cmp    $0x42,%eax
 804965a:	74 75                	je     80496d1 <phase_3+0x159>
 804965c:	e8 33 08 00 00       	call   8049e94 <explode_bomb>
 8049661:	b8 00 00 00 00       	mov    $0x0,%eax
 8049666:	e9 8a 00 00 00       	jmp    80496f5 <phase_3+0x17d>
 804966b:	c6 45 f7 69          	movb   $0x69,-0x9(%ebp)
 804966f:	8b 45 e8             	mov    -0x18(%ebp),%eax
 8049672:	83 f8 42             	cmp    $0x42,%eax
 8049675:	74 5d                	je     80496d4 <phase_3+0x15c>
 8049677:	e8 18 08 00 00       	call   8049e94 <explode_bomb>
 804967c:	b8 00 00 00 00       	mov    $0x0,%eax
 8049681:	eb 72                	jmp    80496f5 <phase_3+0x17d>
 8049683:	c6 45 f7 69          	movb   $0x69,-0x9(%ebp)
 8049687:	8b 45 e8             	mov    -0x18(%ebp),%eax
 804968a:	83 f8 42             	cmp    $0x42,%eax
 804968d:	74 48                	je     80496d7 <phase_3+0x15f>
 804968f:	e8 00 08 00 00       	call   8049e94 <explode_bomb>
 8049694:	b8 00 00 00 00       	mov    $0x0,%eax
 8049699:	eb 5a                	jmp    80496f5 <phase_3+0x17d>
 804969b:	c6 45 f7 6a          	movb   $0x6a,-0x9(%ebp)
 804969f:	8b 45 e8             	mov    -0x18(%ebp),%eax
 80496a2:	3d ab 03 00 00       	cmp    $0x3ab,%eax
 80496a7:	74 31                	je     80496da <phase_3+0x162>
 80496a9:	e8 e6 07 00 00       	call   8049e94 <explode_bomb>
 80496ae:	b8 00 00 00 00       	mov    $0x0,%eax
 80496b3:	eb 40                	jmp    80496f5 <phase_3+0x17d>
 80496b5:	c6 45 f7 69          	movb   $0x69,-0x9(%ebp)
 80496b9:	e8 d6 07 00 00       	call   8049e94 <explode_bomb>
 80496be:	b8 00 00 00 00       	mov    $0x0,%eax
 80496c3:	eb 30                	jmp    80496f5 <phase_3+0x17d>
 80496c5:	90                   	nop
 80496c6:	eb 13                	jmp    80496db <phase_3+0x163>
 80496c8:	90                   	nop
 80496c9:	eb 10                	jmp    80496db <phase_3+0x163>
 80496cb:	90                   	nop
 80496cc:	eb 0d                	jmp    80496db <phase_3+0x163>
 80496ce:	90                   	nop
 80496cf:	eb 0a                	jmp    80496db <phase_3+0x163>
 80496d1:	90                   	nop
 80496d2:	eb 07                	jmp    80496db <phase_3+0x163>
 80496d4:	90                   	nop
 80496d5:	eb 04                	jmp    80496db <phase_3+0x163>
 80496d7:	90                   	nop
 80496d8:	eb 01                	jmp    80496db <phase_3+0x163>
 80496da:	90                   	nop
 80496db:	0f b6 45 e7          	movzbl -0x19(%ebp),%eax
 80496df:	38 45 f7             	cmp    %al,-0x9(%ebp)
 80496e2:	74 0c                	je     80496f0 <phase_3+0x178>
 80496e4:	e8 ab 07 00 00       	call   8049e94 <explode_bomb>
 80496e9:	b8 00 00 00 00       	mov    $0x0,%eax
 80496ee:	eb 05                	jmp    80496f5 <phase_3+0x17d>
 80496f0:	b8 01 00 00 00       	mov    $0x1,%eax
 80496f5:	c9                   	leave  
 80496f6:	c3                   	ret    

080496f7 <func4>:
 80496f7:	55                   	push   %ebp
 80496f8:	89 e5                	mov    %esp,%ebp
 80496fa:	53                   	push   %ebx
 80496fb:	83 ec 04             	sub    $0x4,%esp
 80496fe:	83 7d 08 00          	cmpl   $0x0,0x8(%ebp)
 8049702:	7f 07                	jg     804970b <func4+0x14>
 8049704:	b8 0c 00 00 00       	mov    $0xc,%eax
 8049709:	eb 37                	jmp    8049742 <func4+0x4b>
 804970b:	83 7d 08 01          	cmpl   $0x1,0x8(%ebp)
 804970f:	75 07                	jne    8049718 <func4+0x21>
 8049711:	b8 10 00 00 00       	mov    $0x10,%eax
 8049716:	eb 2a                	jmp    8049742 <func4+0x4b>
 8049718:	8b 45 08             	mov    0x8(%ebp),%eax
 804971b:	83 e8 01             	sub    $0x1,%eax
 804971e:	83 ec 0c             	sub    $0xc,%esp
 8049721:	50                   	push   %eax
 8049722:	e8 d0 ff ff ff       	call   80496f7 <func4>
 8049727:	83 c4 10             	add    $0x10,%esp
 804972a:	89 c3                	mov    %eax,%ebx
 804972c:	8b 45 08             	mov    0x8(%ebp),%eax
 804972f:	83 e8 02             	sub    $0x2,%eax
 8049732:	83 ec 0c             	sub    $0xc,%esp
 8049735:	50                   	push   %eax
 8049736:	e8 bc ff ff ff       	call   80496f7 <func4>
 804973b:	83 c4 10             	add    $0x10,%esp
 804973e:	d1 f8                	sar    %eax
 8049740:	01 d8                	add    %ebx,%eax
 8049742:	8b 5d fc             	mov    -0x4(%ebp),%ebx
 8049745:	c9                   	leave  
 8049746:	c3                   	ret    

08049747 <phase_4>:
 8049747:	55                   	push   %ebp
 8049748:	89 e5                	mov    %esp,%ebp
 804974a:	83 ec 18             	sub    $0x18,%esp
 804974d:	8d 45 e8             	lea    -0x18(%ebp),%eax
 8049750:	50                   	push   %eax
 8049751:	8d 45 ec             	lea    -0x14(%ebp),%eax
 8049754:	50                   	push   %eax
 8049755:	68 15 a2 04 08       	push   $0x804a215
 804975a:	ff 75 08             	pushl  0x8(%ebp)
 804975d:	e8 6e f9 ff ff       	call   80490d0 <__isoc99_sscanf@plt>
 8049762:	83 c4 10             	add    $0x10,%esp
 8049765:	89 45 f4             	mov    %eax,-0xc(%ebp)
 8049768:	83 7d f4 02          	cmpl   $0x2,-0xc(%ebp)
 804976c:	75 08                	jne    8049776 <phase_4+0x2f>
 804976e:	8b 45 ec             	mov    -0x14(%ebp),%eax
 8049771:	83 f8 0a             	cmp    $0xa,%eax
 8049774:	7f 0c                	jg     8049782 <phase_4+0x3b>
 8049776:	e8 19 07 00 00       	call   8049e94 <explode_bomb>
 804977b:	b8 00 00 00 00       	mov    $0x0,%eax
 8049780:	eb 2b                	jmp    80497ad <phase_4+0x66>
 8049782:	8b 45 ec             	mov    -0x14(%ebp),%eax
 8049785:	83 ec 0c             	sub    $0xc,%esp
 8049788:	50                   	push   %eax
 8049789:	e8 69 ff ff ff       	call   80496f7 <func4>
 804978e:	83 c4 10             	add    $0x10,%esp
 8049791:	89 45 f0             	mov    %eax,-0x10(%ebp)
 8049794:	8b 45 e8             	mov    -0x18(%ebp),%eax
 8049797:	39 45 f0             	cmp    %eax,-0x10(%ebp)
 804979a:	74 0c                	je     80497a8 <phase_4+0x61>
 804979c:	e8 f3 06 00 00       	call   8049e94 <explode_bomb>
 80497a1:	b8 00 00 00 00       	mov    $0x0,%eax
 80497a6:	eb 05                	jmp    80497ad <phase_4+0x66>
 80497a8:	b8 01 00 00 00       	mov    $0x1,%eax
 80497ad:	c9                   	leave  
 80497ae:	c3                   	ret    

080497af <phase_5>:
 80497af:	55                   	push   %ebp
 80497b0:	89 e5                	mov    %esp,%ebp
 80497b2:	83 ec 28             	sub    $0x28,%esp
 80497b5:	83 ec 0c             	sub    $0xc,%esp
 80497b8:	ff 75 08             	pushl  0x8(%ebp)
 80497bb:	e8 40 04 00 00       	call   8049c00 <string_length>
 80497c0:	83 c4 10             	add    $0x10,%esp
 80497c3:	89 45 f0             	mov    %eax,-0x10(%ebp)
 80497c6:	83 7d f0 08          	cmpl   $0x8,-0x10(%ebp)
 80497ca:	74 0c                	je     80497d8 <phase_5+0x29>
 80497cc:	e8 c3 06 00 00       	call   8049e94 <explode_bomb>
 80497d1:	b8 00 00 00 00       	mov    $0x0,%eax
 80497d6:	eb 62                	jmp    804983a <phase_5+0x8b>
 80497d8:	c7 45 f4 00 00 00 00 	movl   $0x0,-0xc(%ebp)
 80497df:	eb 26                	jmp    8049807 <phase_5+0x58>
 80497e1:	8b 55 f4             	mov    -0xc(%ebp),%edx
 80497e4:	8b 45 08             	mov    0x8(%ebp),%eax
 80497e7:	01 d0                	add    %edx,%eax
 80497e9:	0f b6 00             	movzbl (%eax),%eax
 80497ec:	0f be c0             	movsbl %al,%eax
 80497ef:	83 e0 0f             	and    $0xf,%eax
 80497f2:	0f b6 80 14 c2 04 08 	movzbl 0x804c214(%eax),%eax
 80497f9:	8d 4d e7             	lea    -0x19(%ebp),%ecx
 80497fc:	8b 55 f4             	mov    -0xc(%ebp),%edx
 80497ff:	01 ca                	add    %ecx,%edx
 8049801:	88 02                	mov    %al,(%edx)
 8049803:	83 45 f4 01          	addl   $0x1,-0xc(%ebp)
 8049807:	83 7d f4 07          	cmpl   $0x7,-0xc(%ebp)
 804980b:	7e d4                	jle    80497e1 <phase_5+0x32>
 804980d:	c6 45 ef 00          	movb   $0x0,-0x11(%ebp)
 8049811:	83 ec 08             	sub    $0x8,%esp
 8049814:	68 44 a2 04 08       	push   $0x804a244
 8049819:	8d 45 e7             	lea    -0x19(%ebp),%eax
 804981c:	50                   	push   %eax
 804981d:	e8 0a 04 00 00       	call   8049c2c <strings_not_equal>
 8049822:	83 c4 10             	add    $0x10,%esp
 8049825:	85 c0                	test   %eax,%eax
 8049827:	74 0c                	je     8049835 <phase_5+0x86>
 8049829:	e8 66 06 00 00       	call   8049e94 <explode_bomb>
 804982e:	b8 00 00 00 00       	mov    $0x0,%eax
 8049833:	eb 05                	jmp    804983a <phase_5+0x8b>
 8049835:	b8 01 00 00 00       	mov    $0x1,%eax
 804983a:	c9                   	leave  
 804983b:	c3                   	ret    

0804983c <phase_6>:
 804983c:	55                   	push   %ebp
 804983d:	89 e5                	mov    %esp,%ebp
 804983f:	83 ec 58             	sub    $0x58,%esp
 8049842:	c7 45 e8 54 c1 04 08 	movl   $0x804c154,-0x18(%ebp)
 8049849:	83 ec 04             	sub    $0x4,%esp
 804984c:	6a 07                	push   $0x7
 804984e:	8d 45 cc             	lea    -0x34(%ebp),%eax
 8049851:	50                   	push   %eax
 8049852:	ff 75 08             	pushl  0x8(%ebp)
 8049855:	e8 18 03 00 00       	call   8049b72 <read_n_numbers>
 804985a:	83 c4 10             	add    $0x10,%esp
 804985d:	85 c0                	test   %eax,%eax
 804985f:	75 0a                	jne    804986b <phase_6+0x2f>
 8049861:	b8 00 00 00 00       	mov    $0x0,%eax
 8049866:	e9 37 01 00 00       	jmp    80499a2 <phase_6+0x166>
 804986b:	c7 45 f0 00 00 00 00 	movl   $0x0,-0x10(%ebp)
 8049872:	eb 60                	jmp    80498d4 <phase_6+0x98>
 8049874:	8b 45 f0             	mov    -0x10(%ebp),%eax
 8049877:	8b 44 85 cc          	mov    -0x34(%ebp,%eax,4),%eax
 804987b:	85 c0                	test   %eax,%eax
 804987d:	7e 0c                	jle    804988b <phase_6+0x4f>
 804987f:	8b 45 f0             	mov    -0x10(%ebp),%eax
 8049882:	8b 44 85 cc          	mov    -0x34(%ebp,%eax,4),%eax
 8049886:	83 f8 07             	cmp    $0x7,%eax
 8049889:	7e 0f                	jle    804989a <phase_6+0x5e>
 804988b:	e8 04 06 00 00       	call   8049e94 <explode_bomb>
 8049890:	b8 00 00 00 00       	mov    $0x0,%eax
 8049895:	e9 08 01 00 00       	jmp    80499a2 <phase_6+0x166>
 804989a:	8b 45 f0             	mov    -0x10(%ebp),%eax
 804989d:	83 c0 01             	add    $0x1,%eax
 80498a0:	89 45 ec             	mov    %eax,-0x14(%ebp)
 80498a3:	eb 25                	jmp    80498ca <phase_6+0x8e>
 80498a5:	8b 45 f0             	mov    -0x10(%ebp),%eax
 80498a8:	8b 54 85 cc          	mov    -0x34(%ebp,%eax,4),%edx
 80498ac:	8b 45 ec             	mov    -0x14(%ebp),%eax
 80498af:	8b 44 85 cc          	mov    -0x34(%ebp,%eax,4),%eax
 80498b3:	39 c2                	cmp    %eax,%edx
 80498b5:	75 0f                	jne    80498c6 <phase_6+0x8a>
 80498b7:	e8 d8 05 00 00       	call   8049e94 <explode_bomb>
 80498bc:	b8 00 00 00 00       	mov    $0x0,%eax
 80498c1:	e9 dc 00 00 00       	jmp    80499a2 <phase_6+0x166>
 80498c6:	83 45 ec 01          	addl   $0x1,-0x14(%ebp)
 80498ca:	83 7d ec 06          	cmpl   $0x6,-0x14(%ebp)
 80498ce:	7e d5                	jle    80498a5 <phase_6+0x69>
 80498d0:	83 45 f0 01          	addl   $0x1,-0x10(%ebp)
 80498d4:	83 7d f0 06          	cmpl   $0x6,-0x10(%ebp)
 80498d8:	7e 9a                	jle    8049874 <phase_6+0x38>
 80498da:	c7 45 f0 00 00 00 00 	movl   $0x0,-0x10(%ebp)
 80498e1:	eb 36                	jmp    8049919 <phase_6+0xdd>
 80498e3:	8b 45 e8             	mov    -0x18(%ebp),%eax
 80498e6:	89 45 f4             	mov    %eax,-0xc(%ebp)
 80498e9:	c7 45 ec 01 00 00 00 	movl   $0x1,-0x14(%ebp)
 80498f0:	eb 0d                	jmp    80498ff <phase_6+0xc3>
 80498f2:	8b 45 f4             	mov    -0xc(%ebp),%eax
 80498f5:	8b 40 08             	mov    0x8(%eax),%eax
 80498f8:	89 45 f4             	mov    %eax,-0xc(%ebp)
 80498fb:	83 45 ec 01          	addl   $0x1,-0x14(%ebp)
 80498ff:	8b 45 f0             	mov    -0x10(%ebp),%eax
 8049902:	8b 44 85 cc          	mov    -0x34(%ebp,%eax,4),%eax
 8049906:	39 45 ec             	cmp    %eax,-0x14(%ebp)
 8049909:	7c e7                	jl     80498f2 <phase_6+0xb6>
 804990b:	8b 45 f0             	mov    -0x10(%ebp),%eax
 804990e:	8b 55 f4             	mov    -0xc(%ebp),%edx
 8049911:	89 54 85 b0          	mov    %edx,-0x50(%ebp,%eax,4)
 8049915:	83 45 f0 01          	addl   $0x1,-0x10(%ebp)
 8049919:	83 7d f0 06          	cmpl   $0x6,-0x10(%ebp)
 804991d:	7e c4                	jle    80498e3 <phase_6+0xa7>
 804991f:	8b 45 b0             	mov    -0x50(%ebp),%eax
 8049922:	89 45 e8             	mov    %eax,-0x18(%ebp)
 8049925:	8b 45 e8             	mov    -0x18(%ebp),%eax
 8049928:	89 45 f4             	mov    %eax,-0xc(%ebp)
 804992b:	c7 45 f0 01 00 00 00 	movl   $0x1,-0x10(%ebp)
 8049932:	eb 1a                	jmp    804994e <phase_6+0x112>
 8049934:	8b 45 f0             	mov    -0x10(%ebp),%eax
 8049937:	8b 54 85 b0          	mov    -0x50(%ebp,%eax,4),%edx
 804993b:	8b 45 f4             	mov    -0xc(%ebp),%eax
 804993e:	89 50 08             	mov    %edx,0x8(%eax)
 8049941:	8b 45 f4             	mov    -0xc(%ebp),%eax
 8049944:	8b 40 08             	mov    0x8(%eax),%eax
 8049947:	89 45 f4             	mov    %eax,-0xc(%ebp)
 804994a:	83 45 f0 01          	addl   $0x1,-0x10(%ebp)
 804994e:	83 7d f0 06          	cmpl   $0x6,-0x10(%ebp)
 8049952:	7e e0                	jle    8049934 <phase_6+0xf8>
 8049954:	8b 45 f4             	mov    -0xc(%ebp),%eax
 8049957:	c7 40 08 00 00 00 00 	movl   $0x0,0x8(%eax)
 804995e:	8b 45 e8             	mov    -0x18(%ebp),%eax
 8049961:	89 45 f4             	mov    %eax,-0xc(%ebp)
 8049964:	c7 45 f0 00 00 00 00 	movl   $0x0,-0x10(%ebp)
 804996b:	eb 2a                	jmp    8049997 <phase_6+0x15b>
 804996d:	8b 45 f4             	mov    -0xc(%ebp),%eax
 8049970:	8b 10                	mov    (%eax),%edx
 8049972:	8b 45 f4             	mov    -0xc(%ebp),%eax
 8049975:	8b 40 08             	mov    0x8(%eax),%eax
 8049978:	8b 00                	mov    (%eax),%eax
 804997a:	39 c2                	cmp    %eax,%edx
 804997c:	7e 0c                	jle    804998a <phase_6+0x14e>
 804997e:	e8 11 05 00 00       	call   8049e94 <explode_bomb>
 8049983:	b8 00 00 00 00       	mov    $0x0,%eax
 8049988:	eb 18                	jmp    80499a2 <phase_6+0x166>
 804998a:	8b 45 f4             	mov    -0xc(%ebp),%eax
 804998d:	8b 40 08             	mov    0x8(%eax),%eax
 8049990:	89 45 f4             	mov    %eax,-0xc(%ebp)
 8049993:	83 45 f0 01          	addl   $0x1,-0x10(%ebp)
 8049997:	83 7d f0 05          	cmpl   $0x5,-0x10(%ebp)
 804999b:	7e d0                	jle    804996d <phase_6+0x131>
 804999d:	b8 01 00 00 00       	mov    $0x1,%eax
 80499a2:	c9                   	leave  
 80499a3:	c3                   	ret    

080499a4 <fun7>:
 80499a4:	55                   	push   %ebp
 80499a5:	89 e5                	mov    %esp,%ebp
 80499a7:	83 ec 08             	sub    $0x8,%esp
 80499aa:	83 7d 08 00          	cmpl   $0x0,0x8(%ebp)
 80499ae:	75 07                	jne    80499b7 <fun7+0x13>
 80499b0:	b8 ff ff ff ff       	mov    $0xffffffff,%eax
 80499b5:	eb 4e                	jmp    8049a05 <fun7+0x61>
 80499b7:	8b 45 08             	mov    0x8(%ebp),%eax
 80499ba:	8b 00                	mov    (%eax),%eax
 80499bc:	39 45 0c             	cmp    %eax,0xc(%ebp)
 80499bf:	7d 19                	jge    80499da <fun7+0x36>
 80499c1:	8b 45 08             	mov    0x8(%ebp),%eax
 80499c4:	8b 40 04             	mov    0x4(%eax),%eax
 80499c7:	83 ec 08             	sub    $0x8,%esp
 80499ca:	ff 75 0c             	pushl  0xc(%ebp)
 80499cd:	50                   	push   %eax
 80499ce:	e8 d1 ff ff ff       	call   80499a4 <fun7>
 80499d3:	83 c4 10             	add    $0x10,%esp
 80499d6:	01 c0                	add    %eax,%eax
 80499d8:	eb 2b                	jmp    8049a05 <fun7+0x61>
 80499da:	8b 45 08             	mov    0x8(%ebp),%eax
 80499dd:	8b 00                	mov    (%eax),%eax
 80499df:	39 45 0c             	cmp    %eax,0xc(%ebp)
 80499e2:	75 07                	jne    80499eb <fun7+0x47>
 80499e4:	b8 00 00 00 00       	mov    $0x0,%eax
 80499e9:	eb 1a                	jmp    8049a05 <fun7+0x61>
 80499eb:	8b 45 08             	mov    0x8(%ebp),%eax
 80499ee:	8b 40 08             	mov    0x8(%eax),%eax
 80499f1:	83 ec 08             	sub    $0x8,%esp
 80499f4:	ff 75 0c             	pushl  0xc(%ebp)
 80499f7:	50                   	push   %eax
 80499f8:	e8 a7 ff ff ff       	call   80499a4 <fun7>
 80499fd:	83 c4 10             	add    $0x10,%esp
 8049a00:	01 c0                	add    %eax,%eax
 8049a02:	83 c0 01             	add    $0x1,%eax
 8049a05:	c9                   	leave  
 8049a06:	c3                   	ret    

08049a07 <secret_phase>:
 8049a07:	55                   	push   %ebp
 8049a08:	89 e5                	mov    %esp,%ebp
 8049a0a:	83 ec 18             	sub    $0x18,%esp
 8049a0d:	e8 3f 03 00 00       	call   8049d51 <read_line>
 8049a12:	89 45 f4             	mov    %eax,-0xc(%ebp)
 8049a15:	83 ec 0c             	sub    $0xc,%esp
 8049a18:	ff 75 f4             	pushl  -0xc(%ebp)
 8049a1b:	e8 e0 f6 ff ff       	call   8049100 <atoi@plt>
 8049a20:	83 c4 10             	add    $0x10,%esp
 8049a23:	89 45 f0             	mov    %eax,-0x10(%ebp)
 8049a26:	83 7d f0 00          	cmpl   $0x0,-0x10(%ebp)
 8049a2a:	7e 09                	jle    8049a35 <secret_phase+0x2e>
 8049a2c:	81 7d f0 e9 03 00 00 	cmpl   $0x3e9,-0x10(%ebp)
 8049a33:	7e 0c                	jle    8049a41 <secret_phase+0x3a>
 8049a35:	e8 5a 04 00 00       	call   8049e94 <explode_bomb>
 8049a3a:	b8 00 00 00 00       	mov    $0x0,%eax
 8049a3f:	eb 42                	jmp    8049a83 <secret_phase+0x7c>
 8049a41:	83 ec 08             	sub    $0x8,%esp
 8049a44:	ff 75 f0             	pushl  -0x10(%ebp)
 8049a47:	68 08 c2 04 08       	push   $0x804c208
 8049a4c:	e8 53 ff ff ff       	call   80499a4 <fun7>
 8049a51:	83 c4 10             	add    $0x10,%esp
 8049a54:	89 45 ec             	mov    %eax,-0x14(%ebp)
 8049a57:	83 7d ec 05          	cmpl   $0x5,-0x14(%ebp)
 8049a5b:	74 0c                	je     8049a69 <secret_phase+0x62>
 8049a5d:	e8 32 04 00 00       	call   8049e94 <explode_bomb>
 8049a62:	b8 00 00 00 00       	mov    $0x0,%eax
 8049a67:	eb 1a                	jmp    8049a83 <secret_phase+0x7c>
 8049a69:	83 ec 0c             	sub    $0xc,%esp
 8049a6c:	68 50 a2 04 08       	push   $0x804a250
 8049a71:	e8 1a f6 ff ff       	call   8049090 <puts@plt>
 8049a76:	83 c4 10             	add    $0x10,%esp
 8049a79:	e8 3f 04 00 00       	call   8049ebd <phase_defused>
 8049a7e:	b8 01 00 00 00       	mov    $0x1,%eax
 8049a83:	c9                   	leave  
 8049a84:	c3                   	ret    

08049a85 <sig_handler>:
 8049a85:	55                   	push   %ebp
 8049a86:	89 e5                	mov    %esp,%ebp
 8049a88:	83 ec 08             	sub    $0x8,%esp
 8049a8b:	83 ec 0c             	sub    $0xc,%esp
 8049a8e:	68 78 a2 04 08       	push   $0x804a278
 8049a93:	e8 f8 f5 ff ff       	call   8049090 <puts@plt>
 8049a98:	83 c4 10             	add    $0x10,%esp
 8049a9b:	83 ec 0c             	sub    $0xc,%esp
 8049a9e:	6a 03                	push   $0x3
 8049aa0:	e8 cb f5 ff ff       	call   8049070 <sleep@plt>
 8049aa5:	83 c4 10             	add    $0x10,%esp
 8049aa8:	83 ec 0c             	sub    $0xc,%esp
 8049aab:	68 b0 a2 04 08       	push   $0x804a2b0
 8049ab0:	e8 7b f5 ff ff       	call   8049030 <printf@plt>
 8049ab5:	83 c4 10             	add    $0x10,%esp
 8049ab8:	a1 44 c2 04 08       	mov    0x804c244,%eax
 8049abd:	83 ec 0c             	sub    $0xc,%esp
 8049ac0:	50                   	push   %eax
 8049ac1:	e8 7a f5 ff ff       	call   8049040 <fflush@plt>
 8049ac6:	83 c4 10             	add    $0x10,%esp
 8049ac9:	83 ec 0c             	sub    $0xc,%esp
 8049acc:	6a 01                	push   $0x1
 8049ace:	e8 9d f5 ff ff       	call   8049070 <sleep@plt>
 8049ad3:	83 c4 10             	add    $0x10,%esp
 8049ad6:	83 ec 0c             	sub    $0xc,%esp
 8049ad9:	68 b8 a2 04 08       	push   $0x804a2b8
 8049ade:	e8 ad f5 ff ff       	call   8049090 <puts@plt>
 8049ae3:	83 c4 10             	add    $0x10,%esp
 8049ae6:	83 ec 0c             	sub    $0xc,%esp
 8049ae9:	6a 10                	push   $0x10
 8049aeb:	e8 b0 f5 ff ff       	call   80490a0 <exit@plt>

08049af0 <invalid_phase>:
 8049af0:	55                   	push   %ebp
 8049af1:	89 e5                	mov    %esp,%ebp
 8049af3:	83 ec 08             	sub    $0x8,%esp
 8049af6:	83 ec 08             	sub    $0x8,%esp
 8049af9:	ff 75 08             	pushl  0x8(%ebp)
 8049afc:	68 c0 a2 04 08       	push   $0x804a2c0
 8049b01:	e8 2a f5 ff ff       	call   8049030 <printf@plt>
 8049b06:	83 c4 10             	add    $0x10,%esp
 8049b09:	83 ec 0c             	sub    $0xc,%esp
 8049b0c:	6a 08                	push   $0x8
 8049b0e:	e8 8d f5 ff ff       	call   80490a0 <exit@plt>

08049b13 <read_six_numbers>:
 8049b13:	55                   	push   %ebp
 8049b14:	89 e5                	mov    %esp,%ebp
 8049b16:	56                   	push   %esi
 8049b17:	53                   	push   %ebx
 8049b18:	83 ec 10             	sub    $0x10,%esp
 8049b1b:	8b 45 0c             	mov    0xc(%ebp),%eax
 8049b1e:	8d 70 14             	lea    0x14(%eax),%esi
 8049b21:	8b 45 0c             	mov    0xc(%ebp),%eax
 8049b24:	8d 58 10             	lea    0x10(%eax),%ebx
 8049b27:	8b 45 0c             	mov    0xc(%ebp),%eax
 8049b2a:	8d 48 0c             	lea    0xc(%eax),%ecx
 8049b2d:	8b 45 0c             	mov    0xc(%ebp),%eax
 8049b30:	8d 50 08             	lea    0x8(%eax),%edx
 8049b33:	8b 45 0c             	mov    0xc(%ebp),%eax
 8049b36:	83 c0 04             	add    $0x4,%eax
 8049b39:	56                   	push   %esi
 8049b3a:	53                   	push   %ebx
 8049b3b:	51                   	push   %ecx
 8049b3c:	52                   	push   %edx
 8049b3d:	50                   	push   %eax
 8049b3e:	ff 75 0c             	pushl  0xc(%ebp)
 8049b41:	68 d1 a2 04 08       	push   $0x804a2d1
 8049b46:	ff 75 08             	pushl  0x8(%ebp)
 8049b49:	e8 82 f5 ff ff       	call   80490d0 <__isoc99_sscanf@plt>
 8049b4e:	83 c4 20             	add    $0x20,%esp
 8049b51:	89 45 f4             	mov    %eax,-0xc(%ebp)
 8049b54:	83 7d f4 05          	cmpl   $0x5,-0xc(%ebp)
 8049b58:	7f 0c                	jg     8049b66 <read_six_numbers+0x53>
 8049b5a:	e8 35 03 00 00       	call   8049e94 <explode_bomb>
 8049b5f:	b8 00 00 00 00       	mov    $0x0,%eax
 8049b64:	eb 05                	jmp    8049b6b <read_six_numbers+0x58>
 8049b66:	b8 01 00 00 00       	mov    $0x1,%eax
 8049b6b:	8d 65 f8             	lea    -0x8(%ebp),%esp
 8049b6e:	5b                   	pop    %ebx
 8049b6f:	5e                   	pop    %esi
 8049b70:	5d                   	pop    %ebp
 8049b71:	c3                   	ret    

08049b72 <read_n_numbers>:
 8049b72:	55                   	push   %ebp
 8049b73:	89 e5                	mov    %esp,%ebp
 8049b75:	83 ec 18             	sub    $0x18,%esp
 8049b78:	c7 45 f0 00 00 00 00 	movl   $0x0,-0x10(%ebp)
 8049b7f:	eb 70                	jmp    8049bf1 <read_n_numbers+0x7f>
 8049b81:	83 7d f0 00          	cmpl   $0x0,-0x10(%ebp)
 8049b85:	75 18                	jne    8049b9f <read_n_numbers+0x2d>
 8049b87:	83 ec 08             	sub    $0x8,%esp
 8049b8a:	68 e3 a2 04 08       	push   $0x804a2e3
 8049b8f:	ff 75 08             	pushl  0x8(%ebp)
 8049b92:	e8 59 f5 ff ff       	call   80490f0 <strtok@plt>
 8049b97:	83 c4 10             	add    $0x10,%esp
 8049b9a:	89 45 f4             	mov    %eax,-0xc(%ebp)
 8049b9d:	eb 15                	jmp    8049bb4 <read_n_numbers+0x42>
 8049b9f:	83 ec 08             	sub    $0x8,%esp
 8049ba2:	68 e3 a2 04 08       	push   $0x804a2e3
 8049ba7:	6a 00                	push   $0x0
 8049ba9:	e8 42 f5 ff ff       	call   80490f0 <strtok@plt>
 8049bae:	83 c4 10             	add    $0x10,%esp
 8049bb1:	89 45 f4             	mov    %eax,-0xc(%ebp)
 8049bb4:	83 7d f4 00          	cmpl   $0x0,-0xc(%ebp)
 8049bb8:	74 27                	je     8049be1 <read_n_numbers+0x6f>
 8049bba:	8b 45 f0             	mov    -0x10(%ebp),%eax
 8049bbd:	8d 14 85 00 00 00 00 	lea    0x0(,%eax,4),%edx
 8049bc4:	8b 45 0c             	mov    0xc(%ebp),%eax
 8049bc7:	01 d0                	add    %edx,%eax
 8049bc9:	83 ec 04             	sub    $0x4,%esp
 8049bcc:	50                   	push   %eax
 8049bcd:	68 e7 a2 04 08       	push   $0x804a2e7
 8049bd2:	ff 75 f4             	pushl  -0xc(%ebp)
 8049bd5:	e8 f6 f4 ff ff       	call   80490d0 <__isoc99_sscanf@plt>
 8049bda:	83 c4 10             	add    $0x10,%esp
 8049bdd:	85 c0                	test   %eax,%eax
 8049bdf:	7f 0c                	jg     8049bed <read_n_numbers+0x7b>
 8049be1:	e8 ae 02 00 00       	call   8049e94 <explode_bomb>
 8049be6:	b8 00 00 00 00       	mov    $0x0,%eax
 8049beb:	eb 11                	jmp    8049bfe <read_n_numbers+0x8c>
 8049bed:	83 45 f0 01          	addl   $0x1,-0x10(%ebp)
 8049bf1:	8b 45 f0             	mov    -0x10(%ebp),%eax
 8049bf4:	3b 45 10             	cmp    0x10(%ebp),%eax
 8049bf7:	7c 88                	jl     8049b81 <read_n_numbers+0xf>
 8049bf9:	b8 01 00 00 00       	mov    $0x1,%eax
 8049bfe:	c9                   	leave  
 8049bff:	c3                   	ret    

08049c00 <string_length>:
 8049c00:	55                   	push   %ebp
 8049c01:	89 e5                	mov    %esp,%ebp
 8049c03:	83 ec 10             	sub    $0x10,%esp
 8049c06:	8b 45 08             	mov    0x8(%ebp),%eax
 8049c09:	89 45 f8             	mov    %eax,-0x8(%ebp)
 8049c0c:	c7 45 fc 00 00 00 00 	movl   $0x0,-0x4(%ebp)
 8049c13:	eb 08                	jmp    8049c1d <string_length+0x1d>
 8049c15:	83 45 f8 01          	addl   $0x1,-0x8(%ebp)
 8049c19:	83 45 fc 01          	addl   $0x1,-0x4(%ebp)
 8049c1d:	8b 45 f8             	mov    -0x8(%ebp),%eax
 8049c20:	0f b6 00             	movzbl (%eax),%eax
 8049c23:	84 c0                	test   %al,%al
 8049c25:	75 ee                	jne    8049c15 <string_length+0x15>
 8049c27:	8b 45 fc             	mov    -0x4(%ebp),%eax
 8049c2a:	c9                   	leave  
 8049c2b:	c3                   	ret    

08049c2c <strings_not_equal>:
 8049c2c:	55                   	push   %ebp
 8049c2d:	89 e5                	mov    %esp,%ebp
 8049c2f:	53                   	push   %ebx
 8049c30:	83 ec 10             	sub    $0x10,%esp
 8049c33:	ff 75 08             	pushl  0x8(%ebp)
 8049c36:	e8 c5 ff ff ff       	call   8049c00 <string_length>
 8049c3b:	83 c4 04             	add    $0x4,%esp
 8049c3e:	89 c3                	mov    %eax,%ebx
 8049c40:	ff 75 0c             	pushl  0xc(%ebp)
 8049c43:	e8 b8 ff ff ff       	call   8049c00 <string_length>
 8049c48:	83 c4 04             	add    $0x4,%esp
 8049c4b:	39 c3                	cmp    %eax,%ebx
 8049c4d:	74 07                	je     8049c56 <strings_not_equal+0x2a>
 8049c4f:	b8 01 00 00 00       	mov    $0x1,%eax
 8049c54:	eb 3c                	jmp    8049c92 <strings_not_equal+0x66>
 8049c56:	8b 45 08             	mov    0x8(%ebp),%eax
 8049c59:	89 45 f8             	mov    %eax,-0x8(%ebp)
 8049c5c:	8b 45 0c             	mov    0xc(%ebp),%eax
 8049c5f:	89 45 f4             	mov    %eax,-0xc(%ebp)
 8049c62:	eb 1f                	jmp    8049c83 <strings_not_equal+0x57>
 8049c64:	8b 45 f8             	mov    -0x8(%ebp),%eax
 8049c67:	0f b6 10             	movzbl (%eax),%edx
 8049c6a:	8b 45 f4             	mov    -0xc(%ebp),%eax
 8049c6d:	0f b6 00             	movzbl (%eax),%eax
 8049c70:	38 c2                	cmp    %al,%dl
 8049c72:	74 07                	je     8049c7b <strings_not_equal+0x4f>
 8049c74:	b8 01 00 00 00       	mov    $0x1,%eax
 8049c79:	eb 17                	jmp    8049c92 <strings_not_equal+0x66>
 8049c7b:	83 45 f8 01          	addl   $0x1,-0x8(%ebp)
 8049c7f:	83 45 f4 01          	addl   $0x1,-0xc(%ebp)
 8049c83:	8b 45 f8             	mov    -0x8(%ebp),%eax
 8049c86:	0f b6 00             	movzbl (%eax),%eax
 8049c89:	84 c0                	test   %al,%al
 8049c8b:	75 d7                	jne    8049c64 <strings_not_equal+0x38>
 8049c8d:	b8 00 00 00 00       	mov    $0x0,%eax
 8049c92:	8b 5d fc             	mov    -0x4(%ebp),%ebx
 8049c95:	c9                   	leave  
 8049c96:	c3                   	ret    

08049c97 <initialize_bomb>:
 8049c97:	55                   	push   %ebp
 8049c98:	89 e5                	mov    %esp,%ebp
 8049c9a:	83 ec 08             	sub    $0x8,%esp
 8049c9d:	83 ec 08             	sub    $0x8,%esp
 8049ca0:	68 85 9a 04 08       	push   $0x8049a85
 8049ca5:	6a 02                	push   $0x2
 8049ca7:	e8 b4 f3 ff ff       	call   8049060 <signal@plt>
 8049cac:	83 c4 10             	add    $0x10,%esp
 8049caf:	90                   	nop
 8049cb0:	c9                   	leave  
 8049cb1:	c3                   	ret    

08049cb2 <initialize_bomb_solve>:
 8049cb2:	55                   	push   %ebp
 8049cb3:	89 e5                	mov    %esp,%ebp
 8049cb5:	90                   	nop
 8049cb6:	5d                   	pop    %ebp
 8049cb7:	c3                   	ret    

08049cb8 <blank_line>:
 8049cb8:	55                   	push   %ebp
 8049cb9:	89 e5                	mov    %esp,%ebp
 8049cbb:	83 ec 08             	sub    $0x8,%esp
 8049cbe:	eb 30                	jmp    8049cf0 <blank_line+0x38>
 8049cc0:	e8 4b f4 ff ff       	call   8049110 <__ctype_b_loc@plt>
 8049cc5:	8b 08                	mov    (%eax),%ecx
 8049cc7:	8b 45 08             	mov    0x8(%ebp),%eax
 8049cca:	8d 50 01             	lea    0x1(%eax),%edx
 8049ccd:	89 55 08             	mov    %edx,0x8(%ebp)
 8049cd0:	0f b6 00             	movzbl (%eax),%eax
 8049cd3:	0f be c0             	movsbl %al,%eax
 8049cd6:	01 c0                	add    %eax,%eax
 8049cd8:	01 c8                	add    %ecx,%eax
 8049cda:	0f b7 00             	movzwl (%eax),%eax
 8049cdd:	0f b7 c0             	movzwl %ax,%eax
 8049ce0:	25 00 20 00 00       	and    $0x2000,%eax
 8049ce5:	85 c0                	test   %eax,%eax
 8049ce7:	75 07                	jne    8049cf0 <blank_line+0x38>
 8049ce9:	b8 00 00 00 00       	mov    $0x0,%eax
 8049cee:	eb 0f                	jmp    8049cff <blank_line+0x47>
 8049cf0:	8b 45 08             	mov    0x8(%ebp),%eax
 8049cf3:	0f b6 00             	movzbl (%eax),%eax
 8049cf6:	84 c0                	test   %al,%al
 8049cf8:	75 c6                	jne    8049cc0 <blank_line+0x8>
 8049cfa:	b8 01 00 00 00       	mov    $0x1,%eax
 8049cff:	c9                   	leave  
 8049d00:	c3                   	ret    

08049d01 <skip>:
 8049d01:	55                   	push   %ebp
 8049d02:	89 e5                	mov    %esp,%ebp
 8049d04:	83 ec 18             	sub    $0x18,%esp
 8049d07:	8b 0d 50 c2 04 08    	mov    0x804c250,%ecx
 8049d0d:	8b 15 4c c2 04 08    	mov    0x804c24c,%edx
 8049d13:	89 d0                	mov    %edx,%eax
 8049d15:	c1 e0 02             	shl    $0x2,%eax
 8049d18:	01 d0                	add    %edx,%eax
 8049d1a:	c1 e0 04             	shl    $0x4,%eax
 8049d1d:	05 60 c2 04 08       	add    $0x804c260,%eax
 8049d22:	83 ec 04             	sub    $0x4,%esp
 8049d25:	51                   	push   %ecx
 8049d26:	6a 50                	push   $0x50
 8049d28:	50                   	push   %eax
 8049d29:	e8 22 f3 ff ff       	call   8049050 <fgets@plt>
 8049d2e:	83 c4 10             	add    $0x10,%esp
 8049d31:	89 45 f4             	mov    %eax,-0xc(%ebp)
 8049d34:	83 7d f4 00          	cmpl   $0x0,-0xc(%ebp)
 8049d38:	74 12                	je     8049d4c <skip+0x4b>
 8049d3a:	83 ec 0c             	sub    $0xc,%esp
 8049d3d:	ff 75 f4             	pushl  -0xc(%ebp)
 8049d40:	e8 73 ff ff ff       	call   8049cb8 <blank_line>
 8049d45:	83 c4 10             	add    $0x10,%esp
 8049d48:	85 c0                	test   %eax,%eax
 8049d4a:	75 bb                	jne    8049d07 <skip+0x6>
 8049d4c:	8b 45 f4             	mov    -0xc(%ebp),%eax
 8049d4f:	c9                   	leave  
 8049d50:	c3                   	ret    

08049d51 <read_line>:
 8049d51:	55                   	push   %ebp
 8049d52:	89 e5                	mov    %esp,%ebp
 8049d54:	83 ec 18             	sub    $0x18,%esp
 8049d57:	e8 a5 ff ff ff       	call   8049d01 <skip>
 8049d5c:	89 45 f4             	mov    %eax,-0xc(%ebp)
 8049d5f:	83 7d f4 00          	cmpl   $0x0,-0xc(%ebp)
 8049d63:	75 79                	jne    8049dde <read_line+0x8d>
 8049d65:	8b 15 50 c2 04 08    	mov    0x804c250,%edx
 8049d6b:	a1 40 c2 04 08       	mov    0x804c240,%eax
 8049d70:	39 c2                	cmp    %eax,%edx
 8049d72:	75 1a                	jne    8049d8e <read_line+0x3d>
 8049d74:	83 ec 0c             	sub    $0xc,%esp
 8049d77:	68 ea a2 04 08       	push   $0x804a2ea
 8049d7c:	e8 0f f3 ff ff       	call   8049090 <puts@plt>
 8049d81:	83 c4 10             	add    $0x10,%esp
 8049d84:	83 ec 0c             	sub    $0xc,%esp
 8049d87:	6a 08                	push   $0x8
 8049d89:	e8 12 f3 ff ff       	call   80490a0 <exit@plt>
 8049d8e:	83 ec 0c             	sub    $0xc,%esp
 8049d91:	68 08 a3 04 08       	push   $0x804a308
 8049d96:	e8 e5 f2 ff ff       	call   8049080 <getenv@plt>
 8049d9b:	83 c4 10             	add    $0x10,%esp
 8049d9e:	85 c0                	test   %eax,%eax
 8049da0:	74 0a                	je     8049dac <read_line+0x5b>
 8049da2:	83 ec 0c             	sub    $0xc,%esp
 8049da5:	6a 00                	push   $0x0
 8049da7:	e8 f4 f2 ff ff       	call   80490a0 <exit@plt>
 8049dac:	a1 40 c2 04 08       	mov    0x804c240,%eax
 8049db1:	a3 50 c2 04 08       	mov    %eax,0x804c250
 8049db6:	e8 46 ff ff ff       	call   8049d01 <skip>
 8049dbb:	89 45 f4             	mov    %eax,-0xc(%ebp)
 8049dbe:	83 7d f4 00          	cmpl   $0x0,-0xc(%ebp)
 8049dc2:	75 1a                	jne    8049dde <read_line+0x8d>
 8049dc4:	83 ec 0c             	sub    $0xc,%esp
 8049dc7:	68 ea a2 04 08       	push   $0x804a2ea
 8049dcc:	e8 bf f2 ff ff       	call   8049090 <puts@plt>
 8049dd1:	83 c4 10             	add    $0x10,%esp
 8049dd4:	83 ec 0c             	sub    $0xc,%esp
 8049dd7:	6a 00                	push   $0x0
 8049dd9:	e8 c2 f2 ff ff       	call   80490a0 <exit@plt>
 8049dde:	8b 15 4c c2 04 08    	mov    0x804c24c,%edx
 8049de4:	89 d0                	mov    %edx,%eax
 8049de6:	c1 e0 02             	shl    $0x2,%eax
 8049de9:	01 d0                	add    %edx,%eax
 8049deb:	c1 e0 04             	shl    $0x4,%eax
 8049dee:	05 60 c2 04 08       	add    $0x804c260,%eax
 8049df3:	83 ec 0c             	sub    $0xc,%esp
 8049df6:	50                   	push   %eax
 8049df7:	e8 b4 f2 ff ff       	call   80490b0 <strlen@plt>
 8049dfc:	83 c4 10             	add    $0x10,%esp
 8049dff:	89 45 f0             	mov    %eax,-0x10(%ebp)
 8049e02:	83 7d f0 4e          	cmpl   $0x4e,-0x10(%ebp)
 8049e06:	7e 4d                	jle    8049e55 <read_line+0x104>
 8049e08:	83 ec 0c             	sub    $0xc,%esp
 8049e0b:	68 13 a3 04 08       	push   $0x804a313
 8049e10:	e8 7b f2 ff ff       	call   8049090 <puts@plt>
 8049e15:	83 c4 10             	add    $0x10,%esp
 8049e18:	8b 15 4c c2 04 08    	mov    0x804c24c,%edx
 8049e1e:	8d 42 01             	lea    0x1(%edx),%eax
 8049e21:	a3 4c c2 04 08       	mov    %eax,0x804c24c
 8049e26:	89 d0                	mov    %edx,%eax
 8049e28:	c1 e0 02             	shl    $0x2,%eax
 8049e2b:	01 d0                	add    %edx,%eax
 8049e2d:	c1 e0 04             	shl    $0x4,%eax
 8049e30:	05 60 c2 04 08       	add    $0x804c260,%eax
 8049e35:	c7 00 2a 2a 2a 74    	movl   $0x742a2a2a,(%eax)
 8049e3b:	c7 40 04 72 75 6e 63 	movl   $0x636e7572,0x4(%eax)
 8049e42:	c7 40 08 61 74 65 64 	movl   $0x64657461,0x8(%eax)
 8049e49:	c7 40 0c 2a 2a 2a 00 	movl   $0x2a2a2a,0xc(%eax)
 8049e50:	e8 3f 00 00 00       	call   8049e94 <explode_bomb>
 8049e55:	8b 15 4c c2 04 08    	mov    0x804c24c,%edx
 8049e5b:	8b 45 f0             	mov    -0x10(%ebp),%eax
 8049e5e:	8d 48 ff             	lea    -0x1(%eax),%ecx
 8049e61:	89 d0                	mov    %edx,%eax
 8049e63:	c1 e0 02             	shl    $0x2,%eax
 8049e66:	01 d0                	add    %edx,%eax
 8049e68:	c1 e0 04             	shl    $0x4,%eax
 8049e6b:	01 c8                	add    %ecx,%eax
 8049e6d:	05 60 c2 04 08       	add    $0x804c260,%eax
 8049e72:	c6 00 00             	movb   $0x0,(%eax)
 8049e75:	8b 15 4c c2 04 08    	mov    0x804c24c,%edx
 8049e7b:	8d 42 01             	lea    0x1(%edx),%eax
 8049e7e:	a3 4c c2 04 08       	mov    %eax,0x804c24c
 8049e83:	89 d0                	mov    %edx,%eax
 8049e85:	c1 e0 02             	shl    $0x2,%eax
 8049e88:	01 d0                	add    %edx,%eax
 8049e8a:	c1 e0 04             	shl    $0x4,%eax
 8049e8d:	05 60 c2 04 08       	add    $0x804c260,%eax
 8049e92:	c9                   	leave  
 8049e93:	c3                   	ret    

08049e94 <explode_bomb>:
 8049e94:	55                   	push   %ebp
 8049e95:	89 e5                	mov    %esp,%ebp
 8049e97:	83 ec 08             	sub    $0x8,%esp
 8049e9a:	83 ec 0c             	sub    $0xc,%esp
 8049e9d:	68 2e a3 04 08       	push   $0x804a32e
 8049ea2:	e8 e9 f1 ff ff       	call   8049090 <puts@plt>
 8049ea7:	83 c4 10             	add    $0x10,%esp
 8049eaa:	83 ec 0c             	sub    $0xc,%esp
 8049ead:	68 37 a3 04 08       	push   $0x804a337
 8049eb2:	e8 d9 f1 ff ff       	call   8049090 <puts@plt>
 8049eb7:	83 c4 10             	add    $0x10,%esp
 8049eba:	90                   	nop
 8049ebb:	c9                   	leave  
 8049ebc:	c3                   	ret    

08049ebd <phase_defused>:
 8049ebd:	55                   	push   %ebp
 8049ebe:	89 e5                	mov    %esp,%ebp
 8049ec0:	83 ec 68             	sub    $0x68,%esp
 8049ec3:	a1 4c c2 04 08       	mov    0x804c24c,%eax
 8049ec8:	83 f8 07             	cmp    $0x7,%eax
 8049ecb:	75 77                	jne    8049f44 <phase_defused+0x87>
 8049ecd:	83 ec 0c             	sub    $0xc,%esp
 8049ed0:	8d 45 a4             	lea    -0x5c(%ebp),%eax
 8049ed3:	50                   	push   %eax
 8049ed4:	8d 45 9c             	lea    -0x64(%ebp),%eax
 8049ed7:	50                   	push   %eax
 8049ed8:	8d 45 a0             	lea    -0x60(%ebp),%eax
 8049edb:	50                   	push   %eax
 8049edc:	68 4e a3 04 08       	push   $0x804a34e
 8049ee1:	68 a0 c3 04 08       	push   $0x804c3a0
 8049ee6:	e8 e5 f1 ff ff       	call   80490d0 <__isoc99_sscanf@plt>
 8049eeb:	83 c4 20             	add    $0x20,%esp
 8049eee:	89 45 f4             	mov    %eax,-0xc(%ebp)
 8049ef1:	83 7d f4 03          	cmpl   $0x3,-0xc(%ebp)
 8049ef5:	75 3d                	jne    8049f34 <phase_defused+0x77>
 8049ef7:	83 ec 08             	sub    $0x8,%esp
 8049efa:	68 57 a3 04 08       	push   $0x804a357
 8049eff:	8d 45 a4             	lea    -0x5c(%ebp),%eax
 8049f02:	50                   	push   %eax
 8049f03:	e8 24 fd ff ff       	call   8049c2c <strings_not_equal>
 8049f08:	83 c4 10             	add    $0x10,%esp
 8049f0b:	85 c0                	test   %eax,%eax
 8049f0d:	75 25                	jne    8049f34 <phase_defused+0x77>
 8049f0f:	83 ec 0c             	sub    $0xc,%esp
 8049f12:	68 60 a3 04 08       	push   $0x804a360
 8049f17:	e8 74 f1 ff ff       	call   8049090 <puts@plt>
 8049f1c:	83 c4 10             	add    $0x10,%esp
 8049f1f:	83 ec 0c             	sub    $0xc,%esp
 8049f22:	68 88 a3 04 08       	push   $0x804a388
 8049f27:	e8 64 f1 ff ff       	call   8049090 <puts@plt>
 8049f2c:	83 c4 10             	add    $0x10,%esp
 8049f2f:	e8 d3 fa ff ff       	call   8049a07 <secret_phase>
 8049f34:	83 ec 0c             	sub    $0xc,%esp
 8049f37:	68 c0 a3 04 08       	push   $0x804a3c0
 8049f3c:	e8 4f f1 ff ff       	call   8049090 <puts@plt>
 8049f41:	83 c4 10             	add    $0x10,%esp
 8049f44:	90                   	nop
 8049f45:	c9                   	leave  
 8049f46:	c3                   	ret    
 8049f47:	66 90                	xchg   %ax,%ax
 8049f49:	66 90                	xchg   %ax,%ax
 8049f4b:	66 90                	xchg   %ax,%ax
 8049f4d:	66 90                	xchg   %ax,%ax
 8049f4f:	90                   	nop

08049f50 <__libc_csu_init>:
 8049f50:	55                   	push   %ebp
 8049f51:	57                   	push   %edi
 8049f52:	56                   	push   %esi
 8049f53:	53                   	push   %ebx
 8049f54:	e8 17 f2 ff ff       	call   8049170 <__x86.get_pc_thunk.bx>
 8049f59:	81 c3 a7 20 00 00    	add    $0x20a7,%ebx
 8049f5f:	83 ec 0c             	sub    $0xc,%esp
 8049f62:	8b 6c 24 28          	mov    0x28(%esp),%ebp
 8049f66:	e8 95 f0 ff ff       	call   8049000 <_init>
 8049f6b:	8d b3 10 ff ff ff    	lea    -0xf0(%ebx),%esi
 8049f71:	8d 83 0c ff ff ff    	lea    -0xf4(%ebx),%eax
 8049f77:	29 c6                	sub    %eax,%esi
 8049f79:	c1 fe 02             	sar    $0x2,%esi
 8049f7c:	74 1f                	je     8049f9d <__libc_csu_init+0x4d>
 8049f7e:	31 ff                	xor    %edi,%edi
 8049f80:	83 ec 04             	sub    $0x4,%esp
 8049f83:	55                   	push   %ebp
 8049f84:	ff 74 24 2c          	pushl  0x2c(%esp)
 8049f88:	ff 74 24 2c          	pushl  0x2c(%esp)
 8049f8c:	ff 94 bb 0c ff ff ff 	call   *-0xf4(%ebx,%edi,4)
 8049f93:	83 c7 01             	add    $0x1,%edi
 8049f96:	83 c4 10             	add    $0x10,%esp
 8049f99:	39 fe                	cmp    %edi,%esi
 8049f9b:	75 e3                	jne    8049f80 <__libc_csu_init+0x30>
 8049f9d:	83 c4 0c             	add    $0xc,%esp
 8049fa0:	5b                   	pop    %ebx
 8049fa1:	5e                   	pop    %esi
 8049fa2:	5f                   	pop    %edi
 8049fa3:	5d                   	pop    %ebp
 8049fa4:	c3                   	ret    
 8049fa5:	8d b4 26 00 00 00 00 	lea    0x0(%esi,%eiz,1),%esi
 8049fac:	8d 74 26 00          	lea    0x0(%esi,%eiz,1),%esi

08049fb0 <__libc_csu_fini>:
 8049fb0:	c3                   	ret    

Disassembly of section .fini:

08049fb4 <_fini>:
 8049fb4:	53                   	push   %ebx
 8049fb5:	83 ec 08             	sub    $0x8,%esp
 8049fb8:	e8 b3 f1 ff ff       	call   8049170 <__x86.get_pc_thunk.bx>
 8049fbd:	81 c3 43 20 00 00    	add    $0x2043,%ebx
 8049fc3:	83 c4 08             	add    $0x8,%esp
 8049fc6:	5b                   	pop    %ebx
 8049fc7:	c3                   	ret    
